   1               		.file	"NAP348_Glove_v1_0.c"
   2               	__SREG__ = 0x3f
   3               	__SP_H__ = 0x3e
   4               	__SP_L__ = 0x3d
   5               	__CCP__  = 0x34
   6               	__tmp_reg__ = 0
   7               	__zero_reg__ = 1
  15               	.Ltext0:
  16               		.section	.text.adxl345_spi_init,"ax",@progbits
  18               	adxl345_spi_init:
  19               	.LFB91:
  20               	.LSM0:
  21               	/* prologue: function */
  22               	/* frame size = 0 */
  23               	.LSM1:
  24 0000 DD98      		cbi 59-32,5
  25               	.LSM2:
  26 0002 D59A      		sbi 58-32,5
  27               	.LSM3:
  28 0004 DE9A      		sbi 59-32,6
  29               	.LSM4:
  30 0006 D69A      		sbi 58-32,6
  31               	.LSM5:
  32 0008 DF98      		cbi 59-32,7
  33               	.LSM6:
  34 000a D79A      		sbi 58-32,7
  35               	.LSM7:
  36 000c E5E6      		ldi r30,lo8(101)
  37 000e F0E0      		ldi r31,hi8(101)
  38 0010 8081      		ld r24,Z
  39 0012 8B7F      		andi r24,lo8(-5)
  40 0014 8083      		st Z,r24
  41               	.LSM8:
  42 0016 E4E6      		ldi r30,lo8(100)
  43 0018 F0E0      		ldi r31,hi8(100)
  44 001a 8081      		ld r24,Z
  45 001c 8B7F      		andi r24,lo8(-5)
  46 001e 8083      		st Z,r24
  47               	/* epilogue start */
  48               	.LSM9:
  49 0020 0895      		ret
  50               	.LFE91:
  52               		.section	.text.getDOUT.1527,"ax",@progbits
  54               	getDOUT.1527:
  55               	.LFB92:
  56               	.LSM10:
  57               	/* prologue: function */
  58               	/* frame size = 0 */
  59               	.LSM11:
  60 0000 8091 6300 		lds r24,99
  61 0004 90E0      		ldi r25,lo8(0)
  62 0006 9695      		lsr r25
  63 0008 8795      		ror r24
  64 000a 9695      		lsr r25
  65 000c 8795      		ror r24
  66               	.LSM12:
  67 000e 8170      		andi r24,lo8(1)
  68               	/* epilogue start */
  69 0010 0895      		ret
  70               	.LFE92:
  72               		.section	.text.adxl345_spi_write.1523,"ax",@progbits
  74               	adxl345_spi_write.1523:
  75               	.LFB93:
  76               	.LSM13:
  77               	.LVL0:
  78               	/* prologue: function */
  79               	/* frame size = 0 */
  80               	.LSM14:
  81 0000 DE9A      		sbi 59-32,6
  82               	.LSM15:
  83 0002 DD98      		cbi 59-32,5
  84 0004 27E0      		ldi r18,lo8(7)
  85 0006 30E0      		ldi r19,hi8(7)
  86               	.LSM16:
  87 0008 482F      		mov r20,r24
  88 000a 50E0      		ldi r21,lo8(0)
  89               	.LVL1:
  90               	.L8:
  91               	.LSM17:
  92 000c DE98      		cbi 59-32,6
  93               	.LSM18:
  94 000e CA01      		movw r24,r20
  95 0010 022E      		mov r0,r18
  96 0012 00C0      		rjmp 2f
  97 0014 9595      	1:	asr r25
  98 0016 8795      		ror r24
  99 0018 0A94      	2:	dec r0
 100 001a 02F4      		brpl 1b
 101 001c 80FF      		sbrs r24,0
 102 001e 00C0      		rjmp .L6
 103 0020 DF9A      		sbi 59-32,7
 104 0022 00C0      		rjmp .L7
 105               	.L6:
 106               	.LSM19:
 107 0024 DF98      		cbi 59-32,7
 108               	.L7:
 109               	.LSM20:
 110 0026 DE9A      		sbi 59-32,6
 111 0028 2150      		subi r18,lo8(-(-1))
 112 002a 3040      		sbci r19,hi8(-(-1))
 113               	.LSM21:
 114 002c 8FEF      		ldi r24,hi8(-1)
 115 002e 2F3F      		cpi r18,lo8(-1)
 116 0030 3807      		cpc r19,r24
 117 0032 01F4      		brne .L8
 118 0034 27E0      		ldi r18,lo8(7)
 119 0036 30E0      		ldi r19,hi8(7)
 120               	.LSM22:
 121 0038 70E0      		ldi r23,lo8(0)
 122               	.LVL2:
 123               	.L11:
 124               	.LSM23:
 125 003a DE98      		cbi 59-32,6
 126               	.LSM24:
 127 003c CB01      		movw r24,r22
 128 003e 022E      		mov r0,r18
 129 0040 00C0      		rjmp 2f
 130 0042 9595      	1:	asr r25
 131 0044 8795      		ror r24
 132 0046 0A94      	2:	dec r0
 133 0048 02F4      		brpl 1b
 134 004a 80FF      		sbrs r24,0
 135 004c 00C0      		rjmp .L9
 136 004e DF9A      		sbi 59-32,7
 137 0050 00C0      		rjmp .L10
 138               	.L9:
 139               	.LSM25:
 140 0052 DF98      		cbi 59-32,7
 141               	.L10:
 142               	.LSM26:
 143 0054 DE9A      		sbi 59-32,6
 144 0056 2150      		subi r18,lo8(-(-1))
 145 0058 3040      		sbci r19,hi8(-(-1))
 146               	.LSM27:
 147 005a 8FEF      		ldi r24,hi8(-1)
 148 005c 2F3F      		cpi r18,lo8(-1)
 149 005e 3807      		cpc r19,r24
 150 0060 01F4      		brne .L11
 151               	.LSM28:
 152 0062 DD9A      		sbi 59-32,5
 153               	/* epilogue start */
 154               	.LSM29:
 155 0064 0895      		ret
 156               	.LFE93:
 158               		.section	.text.adxl345_spi_read.1525,"ax",@progbits
 160               	adxl345_spi_read.1525:
 161               	.LFB94:
 162               	.LSM30:
 163               	.LVL3:
 164 0000 0F93      		push r16
 165 0002 1F93      		push r17
 166               	/* prologue: function */
 167               	/* frame size = 0 */
 168               	.LSM31:
 169 0004 DE9A      		sbi 59-32,6
 170               	.LSM32:
 171 0006 DD98      		cbi 59-32,5
 172 0008 27E0      		ldi r18,lo8(7)
 173 000a 30E0      		ldi r19,hi8(7)
 174               	.LSM33:
 175 000c 482F      		mov r20,r24
 176 000e 50E0      		ldi r21,lo8(0)
 177               	.LVL4:
 178               	.L20:
 179               	.LSM34:
 180 0010 DE98      		cbi 59-32,6
 181               	.LSM35:
 182 0012 2730      		cpi r18,lo8(7)
 183 0014 01F4      		brne .L16
 184 0016 81E0      		ldi r24,lo8(1)
 185               	.LVL5:
 186 0018 00C0      		rjmp .L17
 187               	.LVL6:
 188               	.L16:
 189               	.LSM36:
 190 001a CA01      		movw r24,r20
 191 001c 022E      		mov r0,r18
 192 001e 00C0      		rjmp 2f
 193 0020 9595      	1:	asr r25
 194 0022 8795      		ror r24
 195 0024 0A94      	2:	dec r0
 196 0026 02F4      		brpl 1b
 197               	.LVL7:
 198               	.L17:
 199               	.LSM37:
 200 0028 80FF      		sbrs r24,0
 201 002a 00C0      		rjmp .L18
 202 002c DF9A      		sbi 59-32,7
 203 002e 00C0      		rjmp .L19
 204               	.L18:
 205               	.LSM38:
 206 0030 DF98      		cbi 59-32,7
 207               	.L19:
 208               	.LSM39:
 209 0032 DE9A      		sbi 59-32,6
 210 0034 2150      		subi r18,lo8(-(-1))
 211 0036 3040      		sbci r19,hi8(-(-1))
 212               	.LSM40:
 213 0038 8FEF      		ldi r24,hi8(-1)
 214 003a 2F3F      		cpi r18,lo8(-1)
 215 003c 3807      		cpc r19,r24
 216               	.LVL8:
 217 003e 01F4      		brne .L20
 218 0040 00E0      		ldi r16,lo8(0)
 219               	.LVL9:
 220 0042 10E0      		ldi r17,lo8(0)
 221               	.LVL10:
 222               	.L22:
 223               	.LSM41:
 224 0044 DE98      		cbi 59-32,6
 225               	.LSM42:
 226 0046 0E94 0000 		call getDOUT.1527
 227               	.LVL11:
 228 004a 082B      		or r16,r24
 229               	.LSM43:
 230 004c 1730      		cpi r17,lo8(7)
 231 004e 01F0      		breq .L21
 232 0050 000F      		lsl r16
 233               	.L21:
 234               	.LSM44:
 235 0052 DE9A      		sbi 59-32,6
 236               	.LSM45:
 237 0054 1F5F      		subi r17,lo8(-(1))
 238 0056 1830      		cpi r17,lo8(8)
 239 0058 01F4      		brne .L22
 240               	.LSM46:
 241 005a DD9A      		sbi 59-32,5
 242               	.LSM47:
 243 005c 802F      		mov r24,r16
 244               	/* epilogue start */
 245 005e 1F91      		pop r17
 246               	.LVL12:
 247 0060 0F91      		pop r16
 248               	.LVL13:
 249 0062 0895      		ret
 250               	.LFE94:
 252               		.section	.text.adc_init.1365,"ax",@progbits
 254               	adc_init.1365:
 255               	.LFB130:
 256               	.LSM48:
 257               	.LVL14:
 258               	/* prologue: function */
 259               	/* frame size = 0 */
 260 0000 982F      		mov r25,r24
 261               	.LSM49:
 262 0002 4430      		cpi r20,lo8(4)
 263 0004 00F0      		brlo .L27
 264               	.LVL15:
 265 0006 41E0      		ldi r20,lo8(1)
 266               	.LVL16:
 267               	.L27:
 268               	.LSM50:
 269 0008 86B1      		in r24,38-32
 270 000a 8C7F      		andi r24,lo8(-4)
 271 000c 8660      		ori r24,lo8(6)
 272 000e 86B9      		out 38-32,r24
 273               	.LSM51:
 274 0010 50E0      		ldi r21,lo8(0)
 275 0012 36E0      		ldi r19,6
 276 0014 440F      	1:	lsl r20
 277 0016 551F      		rol r21
 278 0018 3A95      		dec r19
 279 001a 01F4      		brne 1b
 280               	.LVL17:
 281 001c 892F      		mov r24,r25
 282 001e 9032      		cpi r25,lo8(32)
 283 0020 00F0      		brlo .L28
 284 0022 8FE1      		ldi r24,lo8(31)
 285               	.LVL18:
 286               	.L28:
 287 0024 842B      		or r24,r20
 288 0026 87B9      		out 39-32,r24
 289               	.LSM52:
 290 0028 86B1      		in r24,38-32
 291               	.LVL19:
 292 002a 8868      		ori r24,lo8(-120)
 293 002c 86B9      		out 38-32,r24
 294               	.LSM53:
 295 002e 1092 0000 		sts isNewValue.8353,__zero_reg__
 296               	.LSM54:
 297               	/* #APP */
 298               	 ;  101 "../../library/avr/adc_avr.c" 1
 299 0032 7894      		sei
 300               	 ;  0 "" 2
 301               	/* epilogue start */
 302               	.LSM55:
 303               	/* #NOAPP */
 304 0034 0895      		ret
 305               	.LFE130:
 307               		.section	.text.adc_singleConversion.1374,"ax",@progbits
 309               	adc_singleConversion.1374:
 310               	.LFB134:
 311               	.LSM56:
 312               	/* prologue: function */
 313               	/* frame size = 0 */
 314               	.LSM57:
 315 0000 3799      		sbic 38-32,7
 316 0002 00C0      		rjmp .L31
 317 0004 8FEF      		ldi r24,lo8(-1)
 318 0006 9FEF      		ldi r25,hi8(-1)
 319               	.LVL20:
 320 0008 0895      		ret
 321               	.LVL21:
 322               	.L31:
 323               	.LSM58:
 324 000a 3598      		cbi 38-32,5
 325               	.LSM59:
 326 000c 369A      		sbi 38-32,6
 327               	.L33:
 328               	.LSM60:
 329 000e 8091 0000 		lds r24,isNewValue.8353
 330 0012 8823      		tst r24
 331 0014 01F0      		breq .L33
 332               	.LSM61:
 333               	/* #APP */
 334               	 ;  176 "../../library/avr/adc_avr.c" 1
 335 0016 F894      		cli
 336               	 ;  0 "" 2
 337               	.LSM62:
 338               	/* #NOAPP */
 339 0018 1092 0000 		sts isNewValue.8353,__zero_reg__
 340               	.LSM63:
 341 001c 8091 0000 		lds r24,result_local.8352
 342 0020 9091 0000 		lds r25,(result_local.8352)+1
 343               	.LVL22:
 344               	.LSM64:
 345               	/* #APP */
 346               	 ;  179 "../../library/avr/adc_avr.c" 1
 347 0024 7894      		sei
 348               	 ;  0 "" 2
 349               	.LVL23:
 350               	.LSM65:
 351               	/* #NOAPP */
 352 0026 0895      		ret
 353               	.LFE134:
 355               		.section	.text.circBufferCmp.6770,"ax",@progbits
 357               	circBufferCmp.6770:
 358               	.LFB111:
 359               	.LSM66:
 360               	.LVL24:
 361               	/* prologue: function */
 362               	/* frame size = 0 */
 363 0000 FC01      		movw r30,r24
 364 0002 DB01      		movw r26,r22
 365               	.LSM67:
 366 0004 2081      		ld r18,Z
 367               	.LVL25:
 368               	.LSM68:
 369 0006 AC91      		ld r26,X
 370               	.LVL26:
 371               	.LSM69:
 372 0008 2A17      		cp r18,r26
 373 000a 01F0      		breq .L37
 374               	.LVL27:
 375 000c 8FEF      		ldi r24,lo8(-1)
 376 000e 9FEF      		ldi r25,hi8(-1)
 377 0010 00C0      		rjmp .L38
 378               	.LVL28:
 379               	.L39:
 380               	.LSM70:
 381 0012 0097      		sbiw r24,0
 382 0014 01F0      		breq .L37
 383               	.LSM71:
 384 0016 2F5F      		subi r18,lo8(-(1))
 385               	.LSM72:
 386 0018 AF5F      		subi r26,lo8(-(1))
 387 001a 0197      		sbiw r24,1
 388               	.LVL29:
 389               	.L38:
 390               	.LSM73:
 391 001c E22F      		mov r30,r18
 392               	.LVL30:
 393 001e F0E0      		ldi r31,lo8(0)
 394               	.LVL31:
 395 0020 3081      		ld r19,Z
 396 0022 EA2F      		mov r30,r26
 397 0024 F0E0      		ldi r31,lo8(0)
 398               	.LVL32:
 399 0026 E081      		ld r30,Z
 400 0028 3E17      		cp r19,r30
 401 002a 01F0      		breq .L39
 402               	.LSM74:
 403 002c E317      		cp r30,r19
 404 002e 00F0      		brlo .L40
 405 0030 8FEF      		ldi r24,lo8(-1)
 406 0032 9FEF      		ldi r25,hi8(-1)
 407 0034 0895      		ret
 408               	.L40:
 409 0036 81E0      		ldi r24,lo8(1)
 410 0038 90E0      		ldi r25,hi8(1)
 411 003a 0895      		ret
 412               	.LVL33:
 413               	.L37:
 414 003c 80E0      		ldi r24,lo8(0)
 415 003e 90E0      		ldi r25,hi8(0)
 416               	.LSM75:
 417 0040 0895      		ret
 418               	.LFE111:
 420               		.section	.text.__vector_21,"ax",@progbits
 421               	.global	__vector_21
 423               	__vector_21:
 424               	.LFB137:
 425               	.LSM76:
 426 0000 1F92      		push __zero_reg__
 427 0002 0F92      		push r0
 428 0004 0FB6      		in r0,__SREG__
 429 0006 0F92      		push r0
 430 0008 1124      		clr __zero_reg__
 431 000a 2F93      		push r18
 432 000c 3F93      		push r19
 433 000e 8F93      		push r24
 434 0010 9F93      		push r25
 435               	/* prologue: Signal */
 436               	/* frame size = 0 */
 437               	.LSM77:
 438 0012 84B1      		in r24,36-32
 439               	.LVL34:
 440               	.LSM78:
 441 0014 25B1      		in r18,37-32
 442 0016 30E0      		ldi r19,lo8(0)
 443 0018 322F      		mov r19,r18
 444 001a 2227      		clr r18
 445 001c 90E0      		ldi r25,lo8(0)
 446               	.LVL35:
 447 001e 282B      		or r18,r24
 448 0020 392B      		or r19,r25
 449 0022 3093 0000 		sts (result_local.8352)+1,r19
 450 0026 2093 0000 		sts result_local.8352,r18
 451               	.LSM79:
 452 002a 81E0      		ldi r24,lo8(1)
 453               	.LVL36:
 454 002c 8093 0000 		sts isNewValue.8353,r24
 455               	/* epilogue start */
 456               	.LSM80:
 457 0030 9F91      		pop r25
 458               	.LVL37:
 459 0032 8F91      		pop r24
 460 0034 3F91      		pop r19
 461 0036 2F91      		pop r18
 462 0038 0F90      		pop r0
 463 003a 0FBE      		out __SREG__,r0
 464 003c 0F90      		pop r0
 465 003e 1F90      		pop __zero_reg__
 466 0040 1895      		reti
 467               	.LFE137:
 469               		.section	.text.__vector_15,"ax",@progbits
 470               	.global	__vector_15
 472               	__vector_15:
 473               	.LFB152:
 474               	.LSM81:
 475 0000 1F92      		push __zero_reg__
 476 0002 0F92      		push r0
 477 0004 0FB6      		in r0,__SREG__
 478 0006 0F92      		push r0
 479 0008 1124      		clr __zero_reg__
 480 000a 8F93      		push r24
 481 000c 9F93      		push r25
 482               	/* prologue: Signal */
 483               	/* frame size = 0 */
 484               	.LSM82:
 485 000e 87E0      		ldi r24,lo8(7)
 486 0010 83BF      		out 83-32,r24
 487               	.LSM83:
 488 0012 8091 0000 		lds r24,timerInterruptCount.8850
 489 0016 9091 0000 		lds r25,(timerInterruptCount.8850)+1
 490 001a 0196      		adiw r24,1
 491 001c 9093 0000 		sts (timerInterruptCount.8850)+1,r25
 492 0020 8093 0000 		sts timerInterruptCount.8850,r24
 493               	.L46:
 494               	.LSM84:
 495 0024 00B6      		in __tmp_reg__,80-32
 496 0026 00FC      		sbrc __tmp_reg__,0
 497 0028 00C0      		rjmp .L46
 498               	/* epilogue start */
 499               	.LSM85:
 500 002a 9F91      		pop r25
 501 002c 8F91      		pop r24
 502 002e 0F90      		pop r0
 503 0030 0FBE      		out __SREG__,r0
 504 0032 0F90      		pop r0
 505 0034 1F90      		pop __zero_reg__
 506 0036 1895      		reti
 507               	.LFE152:
 509               		.section	.text.__vector_9,"ax",@progbits
 510               	.global	__vector_9
 512               	__vector_9:
 513               	.LFB153:
 514               	.LSM86:
 515 0000 1F92      		push __zero_reg__
 516 0002 0F92      		push r0
 517 0004 0FB6      		in r0,__SREG__
 518 0006 0F92      		push r0
 519 0008 1124      		clr __zero_reg__
 520 000a 8F93      		push r24
 521 000c 9F93      		push r25
 522               	/* prologue: Signal */
 523               	/* frame size = 0 */
 524               	.LSM87:
 525 000e 8091 0000 		lds r24,timerInterruptCount.8850+2
 526 0012 9091 0000 		lds r25,(timerInterruptCount.8850+2)+1
 527 0016 0196      		adiw r24,1
 528 0018 9093 0000 		sts (timerInterruptCount.8850+2)+1,r25
 529 001c 8093 0000 		sts timerInterruptCount.8850+2,r24
 530               	/* epilogue start */
 531               	.LSM88:
 532 0020 9F91      		pop r25
 533 0022 8F91      		pop r24
 534 0024 0F90      		pop r0
 535 0026 0FBE      		out __SREG__,r0
 536 0028 0F90      		pop r0
 537 002a 1F90      		pop __zero_reg__
 538 002c 1895      		reti
 539               	.LFE153:
 541               		.section	.text.write.9314,"ax",@progbits
 543               	write.9314:
 544               	.LFB160:
 545               	.LSM89:
 546               	.LVL38:
 547               	/* prologue: function */
 548               	/* frame size = 0 */
 549               	.LBB217:
 550               	.LBB218:
 551               	.LSM90:
 552 0000 8CB9      		out 44-32,r24
 553               	.L52:
 554               	.LSM91:
 555 0002 5D9B      		sbis 43-32,5
 556 0004 00C0      		rjmp .L52
 557               	.LBE218:
 558               	.LBE217:
 559               	.LSM92:
 560 0006 90E0      		ldi r25,lo8(0)
 561               	.LVL39:
 562               	/* epilogue start */
 563 0008 0895      		ret
 564               	.LFE160:
 566               		.section	.text.read.9316,"ax",@progbits
 568               	read.9316:
 569               	.LFB161:
 570               	.LSM93:
 571               	/* prologue: function */
 572               	/* frame size = 0 */
 573               	.LVL40:
 574               	.L56:
 575               	.LBB221:
 576               	.LBB222:
 577               	.LSM94:
 578 0000 5F9B      		sbis 43-32,7
 579 0002 00C0      		rjmp .L56
 580               	.LSM95:
 581 0004 8CB1      		in r24,44-32
 582               	.LVL41:
 583               	.LBE222:
 584               	.LBE221:
 585               	.LSM96:
 586 0006 90E0      		ldi r25,lo8(0)
 587               	/* epilogue start */
 588 0008 0895      		ret
 589               	.LFE161:
 591               		.section	.text.getByte.9860,"ax",@progbits
 593               	getByte.9860:
 594               	.LFB187:
 595               	.LSM97:
 596               	/* prologue: function */
 597               	/* frame size = 0 */
 598               	.LBB223:
 599               	.LBB224:
 600               	.LSM98:
 601 0000 C098      		cbi 56-32,0
 602               	.LBE224:
 603               	.LBE223:
 604               	.LBB225:
 605               	.LBB226:
 606               	.LSM99:
 607 0002 1FB8      		out 47-32,__zero_reg__
 608               	.L60:
 609               	.LSM100:
 610 0004 779B      		sbis 46-32,7
 611 0006 00C0      		rjmp .L60
 612               	.LSM101:
 613 0008 8FB1      		in r24,47-32
 614               	.LVL42:
 615               	.LBE226:
 616               	.LBE225:
 617               	.LBB227:
 618               	.LBB228:
 619               	.LSM102:
 620 000a C09A      		sbi 56-32,0
 621               	.LVL43:
 622               	/* epilogue start */
 623               	.LBE228:
 624               	.LBE227:
 625               	.LSM103:
 626 000c 0895      		ret
 627               	.LFE187:
 629               		.section	.text.sendByte.9862,"ax",@progbits
 631               	sendByte.9862:
 632               	.LFB188:
 633               	.LSM104:
 634               	.LVL44:
 635               	/* prologue: function */
 636               	/* frame size = 0 */
 637               	.LBB229:
 638               	.LBB230:
 639               	.LSM105:
 640 0000 C098      		cbi 56-32,0
 641               	.LBE230:
 642               	.LBE229:
 643               	.LBB231:
 644               	.LBB232:
 645               	.LSM106:
 646 0002 8FB9      		out 47-32,r24
 647               	.L64:
 648               	.LSM107:
 649 0004 779B      		sbis 46-32,7
 650 0006 00C0      		rjmp .L64
 651               	.LSM108:
 652 0008 8FB1      		in r24,47-32
 653               	.LVL45:
 654               	.LBE232:
 655               	.LBE231:
 656               	.LBB233:
 657               	.LBB234:
 658               	.LSM109:
 659 000a C09A      		sbi 56-32,0
 660               	/* epilogue start */
 661               	.LBE234:
 662               	.LBE233:
 663               	.LSM110:
 664 000c 0895      		ret
 665               	.LFE188:
 667               		.section	.text.rf_setMode.1476,"ax",@progbits
 669               	rf_setMode.1476:
 670               	.LFB179:
 671               	.LSM111:
 672               	.LVL46:
 673 0000 0F93      		push r16
 674 0002 1F93      		push r17
 675               	/* prologue: function */
 676               	/* frame size = 0 */
 677 0004 182F      		mov r17,r24
 678               	.LSM112:
 679 0006 0091 0000 		lds r16,rf_mode.9880
 680 000a 8017      		cp r24,r16
 681 000c 01F0      		breq .L79
 682               	.LSM113:
 683               	/* #APP */
 684               	 ;  375 "../../library/avr/rf_2420.c" 1
 685 000e F894      		cli
 686               	 ;  0 "" 2
 687               	/* #NOAPP */
 688               	.L69:
 689               	.LSM114:
 690 0010 0E94 0000 		call getByte.9860
 691               	.LVL47:
 692               	.LSM115:
 693 0014 83FD      		sbrc r24,3
 694 0016 00C0      		rjmp .L69
 695               	.LSM116:
 696 0018 1330      		cpi r17,lo8(3)
 697 001a 01F0      		breq .L70
 698 001c 0330      		cpi r16,lo8(3)
 699 001e 01F4      		brne .L71
 700               	.LSM117:
 701 0020 86E0      		ldi r24,lo8(6)
 702 0022 0E94 0000 		call sendByte.9862
 703               	.LSM118:
 704 0026 89B7      		in r24,89-32
 705 0028 8F7E      		andi r24,lo8(-17)
 706 002a 89BF      		out 89-32,r24
 707               	.L71:
 708               	.LSM119:
 709 002c 1130      		cpi r17,lo8(1)
 710 002e 01F4      		brne .L72
 711               	.LSM120:
 712 0030 87E0      		ldi r24,lo8(7)
 713 0032 0E94 0000 		call sendByte.9862
 714 0036 00C0      		rjmp .L75
 715               	.L72:
 716               	.LSM121:
 717 0038 1123      		tst r17
 718 003a 01F4      		brne .L74
 719               	.LSM122:
 720 003c C598      		cbi 56-32,5
 721               	.LBB237:
 722               	.LBB238:
 723               	.LSM123:
 724 003e 149A      		sbi 34-32,4
 725               	.LSM124:
 726 0040 159A      		sbi 34-32,5
 727               	.LSM125:
 728 0042 8C9A      		sbi 49-32,4
 729               	.LSM126:
 730 0044 8D9A      		sbi 49-32,5
 731 0046 00C0      		rjmp .L75
 732               	.L70:
 733               	.LBE238:
 734               	.LBE237:
 735               	.LSM127:
 736 0048 0230      		cpi r16,lo8(2)
 737 004a 01F4      		brne .L76
 738 004c 00C0      		rjmp .L77
 739               	.L74:
 740 004e 1230      		cpi r17,lo8(2)
 741 0050 01F4      		brne .L73
 742 0052 0330      		cpi r16,lo8(3)
 743 0054 01F0      		breq .L75
 744               	.L76:
 745               	.LSM128:
 746 0056 81E0      		ldi r24,lo8(1)
 747 0058 0E94 0000 		call sendByte.9862
 748               	.L78:
 749               	.LSM129:
 750 005c 0E94 0000 		call getByte.9860
 751               	.LSM130:
 752 0060 86FF      		sbrs r24,6
 753 0062 00C0      		rjmp .L78
 754               	.L73:
 755               	.LSM131:
 756 0064 1330      		cpi r17,lo8(3)
 757 0066 01F4      		brne .L75
 758               	.L77:
 759               	.LSM132:
 760 0068 83E0      		ldi r24,lo8(3)
 761 006a 0E94 0000 		call sendByte.9862
 762               	.LSM133:
 763 006e 88E0      		ldi r24,lo8(8)
 764 0070 0E94 0000 		call sendByte.9862
 765               	.LSM134:
 766 0074 89B7      		in r24,89-32
 767 0076 8061      		ori r24,lo8(16)
 768 0078 89BF      		out 89-32,r24
 769               	.L75:
 770               	.LSM135:
 771               	/* #APP */
 772               	 ;  416 "../../library/avr/rf_2420.c" 1
 773 007a 7894      		sei
 774               	 ;  0 "" 2
 775               	.LSM136:
 776               	/* #NOAPP */
 777 007c 1093 0000 		sts rf_mode.9880,r17
 778               	.LVL48:
 779               	.L79:
 780               	/* epilogue start */
 781               	.LSM137:
 782 0080 1F91      		pop r17
 783               	.LVL49:
 784 0082 0F91      		pop r16
 785 0084 0895      		ret
 786               	.LFE179:
 788               		.section	.text.setRegister.9865,"ax",@progbits
 790               	setRegister.9865:
 791               	.LFB189:
 792               	.LSM138:
 793               	.LVL50:
 794               	/* prologue: function */
 795               	/* frame size = 0 */
 796               	.LBB239:
 797               	.LBB240:
 798               	.LSM139:
 799 0000 C098      		cbi 56-32,0
 800               	.LBE240:
 801               	.LBE239:
 802               	.LBB241:
 803               	.LBB242:
 804               	.LSM140:
 805 0002 8FB9      		out 47-32,r24
 806               	.L83:
 807               	.LSM141:
 808 0004 779B      		sbis 46-32,7
 809 0006 00C0      		rjmp .L83
 810               	.LSM142:
 811 0008 8FB1      		in r24,47-32
 812               	.LVL51:
 813               	.LBE242:
 814               	.LBE241:
 815               	.LSM143:
 816 000a 872F      		mov r24,r23
 817 000c 9927      		clr r25
 818               	.LBB243:
 819               	.LBB244:
 820               	.LSM144:
 821 000e 8FB9      		out 47-32,r24
 822               	.L84:
 823               	.LSM145:
 824 0010 779B      		sbis 46-32,7
 825 0012 00C0      		rjmp .L84
 826               	.LSM146:
 827 0014 8FB1      		in r24,47-32
 828               	.LBE244:
 829               	.LBE243:
 830               	.LBB245:
 831               	.LBB246:
 832               	.LSM147:
 833 0016 6FB9      		out 47-32,r22
 834               	.L85:
 835               	.LSM148:
 836 0018 779B      		sbis 46-32,7
 837 001a 00C0      		rjmp .L85
 838               	.LSM149:
 839 001c 8FB1      		in r24,47-32
 840               	.LBE246:
 841               	.LBE245:
 842               	.LBB247:
 843               	.LBB248:
 844               	.LSM150:
 845 001e C09A      		sbi 56-32,0
 846               	/* epilogue start */
 847               	.LBE248:
 848               	.LBE247:
 849               	.LSM151:
 850 0020 0895      		ret
 851               	.LFE189:
 853               		.section	.text.sendRamAddress.9867,"ax",@progbits
 855               	sendRamAddress.9867:
 856               	.LFB190:
 857               	.LSM152:
 858               	.LVL52:
 859               	/* prologue: function */
 860               	/* frame size = 0 */
 861 0000 9C01      		movw r18,r24
 862               	.LSM153:
 863 0002 8068      		ori r24,lo8(-128)
 864               	.LVL53:
 865               	.LBB249:
 866               	.LBB250:
 867               	.LSM154:
 868 0004 8FB9      		out 47-32,r24
 869               	.L91:
 870               	.LSM155:
 871 0006 779B      		sbis 46-32,7
 872 0008 00C0      		rjmp .L91
 873               	.LSM156:
 874 000a 8FB1      		in r24,47-32
 875               	.LBE250:
 876               	.LBE249:
 877               	.LSM157:
 878 000c 3695      		lsr r19
 879 000e 2795      		ror r18
 880 0010 822F      		mov r24,r18
 881               	.LVL54:
 882 0012 807C      		andi r24,lo8(-64)
 883               	.LBB251:
 884               	.LBB252:
 885               	.LSM158:
 886 0014 8FB9      		out 47-32,r24
 887               	.L92:
 888               	.LSM159:
 889 0016 779B      		sbis 46-32,7
 890 0018 00C0      		rjmp .L92
 891               	.LSM160:
 892 001a 8FB1      		in r24,47-32
 893               	/* epilogue start */
 894               	.LBE252:
 895               	.LBE251:
 896               	.LSM161:
 897 001c 0895      		ret
 898               	.LFE190:
 900               		.section	.text.writeFifo.9870,"ax",@progbits
 902               	writeFifo.9870:
 903               	.LFB191:
 904               	.LSM162:
 905               	.LVL55:
 906               	/* prologue: function */
 907               	/* frame size = 0 */
 908 0000 9C01      		movw r18,r24
 909               	.LBB253:
 910               	.LBB254:
 911               	.LSM163:
 912 0002 C098      		cbi 56-32,0
 913               	.LBE254:
 914               	.LBE253:
 915               	.LBB255:
 916               	.LBB256:
 917               	.LSM164:
 918 0004 8EE3      		ldi r24,lo8(62)
 919               	.LVL56:
 920 0006 8FB9      		out 47-32,r24
 921               	.L97:
 922               	.LSM165:
 923 0008 779B      		sbis 46-32,7
 924 000a 00C0      		rjmp .L97
 925               	.LSM166:
 926 000c 8FB1      		in r24,47-32
 927 000e F901      		movw r30,r18
 928 0010 90E0      		ldi r25,lo8(0)
 929               	.LVL57:
 930 0012 00C0      		rjmp .L98
 931               	.L100:
 932               	.LBE256:
 933               	.LBE255:
 934               	.LBB257:
 935               	.LSM167:
 936 0014 8081      		ld r24,Z
 937               	.LBB258:
 938               	.LBB259:
 939               	.LSM168:
 940 0016 8FB9      		out 47-32,r24
 941               	.L99:
 942               	.LSM169:
 943 0018 779B      		sbis 46-32,7
 944 001a 00C0      		rjmp .L99
 945               	.LSM170:
 946 001c 8FB1      		in r24,47-32
 947               	.LBE259:
 948               	.LBE258:
 949               	.LSM171:
 950 001e 9F5F      		subi r25,lo8(-(1))
 951 0020 3196      		adiw r30,1
 952               	.L98:
 953 0022 9617      		cp r25,r22
 954 0024 00F0      		brlo .L100
 955               	.LBE257:
 956               	.LBB260:
 957               	.LBB261:
 958               	.LSM172:
 959 0026 C09A      		sbi 56-32,0
 960               	/* epilogue start */
 961               	.LBE261:
 962               	.LBE260:
 963               	.LSM173:
 964 0028 0895      		ret
 965               	.LFE191:
 967               		.data
 968               	.LC0:
 969 0000 2566 00   		.string	"%f"
 970               		.section	.text.main,"ax",@progbits
 971               	.global	main
 973               	main:
 974               	.LFB15:
 975               	.LSM174:
 976 0000 A5E0      		ldi r26,lo8(5)
 977 0002 B0E0      		ldi r27,hi8(5)
 978 0004 E0E0      		ldi r30,lo8(gs(1f))
 979 0006 F0E0      		ldi r31,hi8(gs(1f))
 980 0008 0C94 0000 		jmp __prologue_saves__+((18 - 18) * 2)
 981               	1:
 982               	/* prologue: function */
 983               	/* frame size = 5 */
 984               	.LSM175:
 985 000c 84E0      		ldi r24,lo8(4)
 986 000e 8BBB      		out 59-32,r24
 987 0010 9FEF      		ldi r25,lo8(-1)
 988 0012 9ABB      		out 58-32,r25
 989 0014 81E0      		ldi r24,lo8(1)
 990 0016 88BB      		out 56-32,r24
 991 0018 97BB      		out 55-32,r25
 992 001a 22E0      		ldi r18,lo8(2)
 993 001c 25BB      		out 53-32,r18
 994 001e 94BB      		out 52-32,r25
 995 0020 83E0      		ldi r24,lo8(3)
 996 0022 82BB      		out 50-32,r24
 997 0024 8CEF      		ldi r24,lo8(-4)
 998 0026 81BB      		out 49-32,r24
 999 0028 23B9      		out 35-32,r18
 1000 002a 8DEF      		ldi r24,lo8(-3)
 1001 002c 82B9      		out 34-32,r24
 1002 002e 1092 6200 		sts 98,__zero_reg__
 1003 0032 9093 6100 		sts 97,r25
 1004 0036 1092 6500 		sts 101,__zero_reg__
 1005 003a 8FE1      		ldi r24,lo8(31)
 1006 003c 8093 6400 		sts 100,r24
 1007               	.LSM176:
 1008 0040 1092 6200 		sts 98,__zero_reg__
 1009               	.LSM177:
 1010 0044 1092 6100 		sts 97,__zero_reg__
 1011               	.LSM178:
 1012 0048 D49A      		sbi 58-32,4
 1013               	.LSM179:
 1014 004a DC98      		cbi 59-32,4
 1015               	.LSM180:
 1016 004c A29A      		sbi 52-32,2
 1017               	.LSM181:
 1018 004e AA9A      		sbi 53-32,2
 1019               	.LSM182:
 1020 0050 A39A      		sbi 52-32,3
 1021               	.LSM183:
 1022 0052 AB9A      		sbi 53-32,3
 1023               	.LSM184:
 1024 0054 A19A      		sbi 52-32,1
 1025               	.LSM185:
 1026 0056 A998      		cbi 53-32,1
 1027               	.LSM186:
 1028 0058 A09A      		sbi 52-32,0
 1029               	.LSM187:
 1030 005a A898      		cbi 53-32,0
 1031               	.LSM188:
 1032 005c 0E94 0000 		call adxl345_spi_init
 1033               	.LSM189:
 1034 0060 A79A      		sbi 52-32,7
 1035               	.LSM190:
 1036 0062 AF98      		cbi 53-32,7
 1037               	.LSM191:
 1038 0064 A69A      		sbi 52-32,6
 1039               	.LSM192:
 1040 0066 AE98      		cbi 53-32,6
 1041               	.LSM193:
 1042 0068 A59A      		sbi 52-32,5
 1043               	.LSM194:
 1044 006a AD98      		cbi 53-32,5
 1045               	.LSM195:
 1046 006c A49A      		sbi 52-32,4
 1047               	.LSM196:
 1048 006e AC98      		cbi 53-32,4
 1049               	.LSM197:
 1050 0070 1092 6200 		sts 98,__zero_reg__
 1051               	.LSM198:
 1052 0074 1092 6100 		sts 97,__zero_reg__
 1053               	.LBB386:
 1054               	.LBB387:
 1055               	.LBB414:
 1056               	.LBB415:
 1057               	.LSM199:
 1058 0078 8F9A      		sbi 49-32,7
 1059               	.LSM200:
 1060 007a 979A      		sbi 50-32,7
 1061               	.LSM201:
 1062 007c BD9A      		sbi 55-32,5
 1063               	.LSM202:
 1064 007e 1498      		cbi 34-32,4
 1065               	.LSM203:
 1066 0080 1598      		cbi 34-32,5
 1067               	.LSM204:
 1068 0082 8C98      		cbi 49-32,4
 1069               	.LSM205:
 1070 0084 8D98      		cbi 49-32,5
 1071               	.LBE415:
 1072               	.LBE414:
 1073               	.LBB410:
 1074               	.LBB411:
 1075               	.LSM206:
 1076 0086 88B3      		in r24,56-32
 1077 0088 8F60      		ori r24,lo8(15)
 1078 008a 88BB      		out 56-32,r24
 1079               	.LSM207:
 1080 008c 80E5      		ldi r24,lo8(80)
 1081 008e 8DB9      		out 45-32,r24
 1082               	.LBB412:
 1083               	.LBB413:
 1084               	.LSM208:
 1085 0090 C09A      		sbi 56-32,0
 1086               	.LBE413:
 1087               	.LBE412:
 1088               	.LBE411:
 1089               	.LBE410:
 1090               	.LSM209:
 1091 0092 C59A      		sbi 56-32,5
 1092               	.LBB404:
 1093               	.LBB405:
 1094               	.LBB406:
 1095               	.LBB407:
 1096               	.LBB408:
 1097               	.LBB409:
 1098               	.LSM210:
 1099 0094 80EB      		ldi r24,lo8(1200)
 1100 0096 94E0      		ldi r25,hi8(1200)
 1101               	.LVL58:
 1102               	/* #APP */
 1103               	 ;  105 "c:/winavr-20100110/lib/gcc/../../avr/include/util/delay_basic.h" 1
 1104 0098 0197      		1: sbiw r24,1
 1105 009a 01F4      		brne 1b
 1106               	 ;  0 "" 2
 1107               	/* #NOAPP */
 1108               	.LBE409:
 1109               	.LBE408:
 1110               	.LBE407:
 1111               	.LBE406:
 1112               	.LBE405:
 1113               	.LBE404:
 1114               	.LSM211:
 1115 009c 9798      		cbi 50-32,7
 1116               	.LBB398:
 1117               	.LBB399:
 1118               	.LBB400:
 1119               	.LBB401:
 1120               	.LBB402:
 1121               	.LBB403:
 1122               	.LSM212:
 1123 009e 80ED      		ldi r24,lo8(2000)
 1124 00a0 97E0      		ldi r25,hi8(2000)
 1125               	.LVL59:
 1126               	/* #APP */
 1127               	 ;  105 "c:/winavr-20100110/lib/gcc/../../avr/include/util/delay_basic.h" 1
 1128 00a2 0197      		1: sbiw r24,1
 1129 00a4 01F4      		brne 1b
 1130               	 ;  0 "" 2
 1131               	/* #NOAPP */
 1132               	.LBE403:
 1133               	.LBE402:
 1134               	.LBE401:
 1135               	.LBE400:
 1136               	.LBE399:
 1137               	.LBE398:
 1138               	.LSM213:
 1139 00a6 979A      		sbi 50-32,7
 1140               	.LBB392:
 1141               	.LBB393:
 1142               	.LBB394:
 1143               	.LBB395:
 1144               	.LBB396:
 1145               	.LBB397:
 1146               	.LSM214:
 1147 00a8 88EE      		ldi r24,lo8(1000)
 1148 00aa 93E0      		ldi r25,hi8(1000)
 1149               	.LVL60:
 1150               	/* #APP */
 1151               	 ;  105 "c:/winavr-20100110/lib/gcc/../../avr/include/util/delay_basic.h" 1
 1152 00ac 0197      		1: sbiw r24,1
 1153 00ae 01F4      		brne 1b
 1154               	 ;  0 "" 2
 1155               	/* #NOAPP */
 1156               	.LBE397:
 1157               	.LBE396:
 1158               	.LBE395:
 1159               	.LBE394:
 1160               	.LBE393:
 1161               	.LBE392:
 1162               	.LBB390:
 1163               	.LBB391:
 1164               	.LSM215:
 1165               	/* #APP */
 1166               	 ;  436 "../../library/avr/rf_2420.c" 1
 1167 00b0 F894      		cli
 1168               	 ;  0 "" 2
 1169               	.LSM216:
 1170               	/* #NOAPP */
 1171 00b2 88E1      		ldi r24,lo8(24)
 1172               	.LVL61:
 1173 00b4 62E9      		ldi r22,lo8(16786)
 1174 00b6 71E4      		ldi r23,hi8(16786)
 1175 00b8 0E94 0000 		call setRegister.9865
 1176               	.LSM217:
 1177               	/* #APP */
 1178               	 ;  438 "../../library/avr/rf_2420.c" 1
 1179 00bc 7894      		sei
 1180               	 ;  0 "" 2
 1181               	/* #NOAPP */
 1182               	.LBE391:
 1183               	.LBE390:
 1184               	.LBB388:
 1185               	.LBB389:
 1186               	.LSM218:
 1187 00be 8FEF      		ldi r24,lo8(-1)
 1188 00c0 8093 0000 		sts rf_power.9881,r24
 1189               	.LSM219:
 1190               	/* #APP */
 1191               	 ;  457 "../../library/avr/rf_2420.c" 1
 1192 00c4 F894      		cli
 1193               	 ;  0 "" 2
 1194               	.LSM220:
 1195               	/* #NOAPP */
 1196 00c6 85E1      		ldi r24,lo8(21)
 1197 00c8 6FEF      		ldi r22,lo8(-24321)
 1198 00ca 70EA      		ldi r23,hi8(-24321)
 1199 00cc 0E94 0000 		call setRegister.9865
 1200               	.LSM221:
 1201               	/* #APP */
 1202               	 ;  459 "../../library/avr/rf_2420.c" 1
 1203 00d0 7894      		sei
 1204               	 ;  0 "" 2
 1205               	/* #NOAPP */
 1206               	.LBE389:
 1207               	.LBE388:
 1208               	.LSM222:
 1209 00d2 8AB7      		in r24,90-32
 1210 00d4 8360      		ori r24,lo8(3)
 1211 00d6 8ABF      		out 90-32,r24
 1212 00d8 80E1      		ldi r24,lo8(16)
 1213 00da 88BF      		out 88-32,r24
 1214               	.LSM223:
 1215               	/* #APP */
 1216               	 ;  230 "../../library/avr/rf_2420.c" 1
 1217 00dc F894      		cli
 1218               	 ;  0 "" 2
 1219               	.LSM224:
 1220               	/* #NOAPP */
 1221 00de 81E0      		ldi r24,lo8(1)
 1222 00e0 0E94 0000 		call sendByte.9862
 1223               	.LSM225:
 1224 00e4 82E1      		ldi r24,lo8(18)
 1225 00e6 60E0      		ldi r22,lo8(1280)
 1226 00e8 75E0      		ldi r23,hi8(1280)
 1227 00ea 0E94 0000 		call setRegister.9865
 1228               	.LSM226:
 1229 00ee 87E1      		ldi r24,lo8(23)
 1230 00f0 66E5      		ldi r22,lo8(10838)
 1231 00f2 7AE2      		ldi r23,hi8(10838)
 1232 00f4 0E94 0000 		call setRegister.9865
 1233               	.LSM227:
 1234 00f8 8CE1      		ldi r24,lo8(28)
 1235 00fa 6FE7      		ldi r22,lo8(127)
 1236 00fc 70E0      		ldi r23,hi8(127)
 1237 00fe 0E94 0000 		call setRegister.9865
 1238               	.LSM228:
 1239 0102 89E1      		ldi r24,lo8(25)
 1240 0104 64EC      		ldi r22,lo8(452)
 1241 0106 71E0      		ldi r23,hi8(452)
 1242 0108 0E94 0000 		call setRegister.9865
 1243               	.LSM229:
 1244 010c 1092 0000 		sts txSeqNumber.9876,__zero_reg__
 1245               	.L105:
 1246               	.LBE387:
 1247               	.LSM230:
 1248 0110 0E94 0000 		call getByte.9860
 1249               	.LBB432:
 1250               	.LSM231:
 1251 0114 86FF      		sbrs r24,6
 1252 0116 00C0      		rjmp .L105
 1253               	.LBB416:
 1254               	.LBB417:
 1255               	.LSM232:
 1256 0118 C098      		cbi 56-32,0
 1257               	.LBE417:
 1258               	.LBE416:
 1259               	.LSM233:
 1260 011a 8AE6      		ldi r24,lo8(362)
 1261 011c 91E0      		ldi r25,hi8(362)
 1262 011e 0E94 0000 		call sendRamAddress.9867
 1263               	.LBB418:
 1264               	.LBB419:
 1265               	.LSM234:
 1266 0122 89E7      		ldi r24,lo8(121)
 1267 0124 8FB9      		out 47-32,r24
 1268               	.L106:
 1269               	.LSM235:
 1270 0126 779B      		sbis 46-32,7
 1271 0128 00C0      		rjmp .L106
 1272               	.LSM236:
 1273 012a 8FB1      		in r24,47-32
 1274               	.LBE419:
 1275               	.LBE418:
 1276               	.LBB420:
 1277               	.LBB421:
 1278               	.LSM237:
 1279 012c 89E7      		ldi r24,lo8(121)
 1280 012e 8FB9      		out 47-32,r24
 1281               	.L107:
 1282               	.LSM238:
 1283 0130 779B      		sbis 46-32,7
 1284 0132 00C0      		rjmp .L107
 1285               	.LSM239:
 1286 0134 8FB1      		in r24,47-32
 1287               	.LBE421:
 1288               	.LBE420:
 1289               	.LBB422:
 1290               	.LBB423:
 1291               	.LSM240:
 1292 0136 C09A      		sbi 56-32,0
 1293               	.LBE423:
 1294               	.LBE422:
 1295               	.LBB424:
 1296               	.LBB425:
 1297               	.LSM241:
 1298 0138 C098      		cbi 56-32,0
 1299               	.LBE425:
 1300               	.LBE424:
 1301               	.LSM242:
 1302 013a 88E6      		ldi r24,lo8(360)
 1303 013c 91E0      		ldi r25,hi8(360)
 1304 013e 0E94 0000 		call sendRamAddress.9867
 1305               	.LBB426:
 1306               	.LBB427:
 1307               	.LSM243:
 1308 0142 85EB      		ldi r24,lo8(-75)
 1309 0144 8FB9      		out 47-32,r24
 1310               	.L108:
 1311               	.LSM244:
 1312 0146 779B      		sbis 46-32,7
 1313 0148 00C0      		rjmp .L108
 1314               	.LSM245:
 1315 014a 8FB1      		in r24,47-32
 1316               	.LBE427:
 1317               	.LBE426:
 1318               	.LBB428:
 1319               	.LBB429:
 1320               	.LSM246:
 1321 014c 81E3      		ldi r24,lo8(49)
 1322 014e 8FB9      		out 47-32,r24
 1323               	.L109:
 1324               	.LSM247:
 1325 0150 779B      		sbis 46-32,7
 1326 0152 00C0      		rjmp .L109
 1327               	.LSM248:
 1328 0154 8FB1      		in r24,47-32
 1329               	.LBE429:
 1330               	.LBE428:
 1331               	.LBB430:
 1332               	.LBB431:
 1333               	.LSM249:
 1334 0156 C09A      		sbi 56-32,0
 1335               	.LBE431:
 1336               	.LBE430:
 1337               	.LSM250:
 1338 0158 87E0      		ldi r24,lo8(7)
 1339 015a 0E94 0000 		call sendByte.9862
 1340               	.LSM251:
 1341               	/* #APP */
 1342               	 ;  270 "../../library/avr/rf_2420.c" 1
 1343 015e 7894      		sei
 1344               	 ;  0 "" 2
 1345               	/* #NOAPP */
 1346               	.LBE432:
 1347               	.LBE386:
 1348               	.LBB433:
 1349               	.LBB434:
 1350               	.LSM252:
 1351 0160 80E0      		ldi r24,lo8(receivedMsg.1647)
 1352 0162 90E0      		ldi r25,hi8(receivedMsg.1647)
 1353 0164 9093 0000 		sts (buffer.9879)+1,r25
 1354 0168 8093 0000 		sts buffer.9879,r24
 1355               	.LBE434:
 1356               	.LBE433:
 1357               	.LSM253:
 1358 016c DC9A      		sbi 59-32,4
 1359               	.LBB435:
 1360               	.LBB436:
 1361               	.LSM254:
 1362 016e 1092 9000 		sts 144,__zero_reg__
 1363               	.LSM255:
 1364 0172 19B8      		out 41-32,__zero_reg__
 1365               	.LSM256:
 1366 0174 599A      		sbi 43-32,1
 1367               	.LSM257:
 1368 0176 86E0      		ldi r24,lo8(6)
 1369 0178 8093 9500 		sts 149,r24
 1370               	.LBB437:
 1371               	.LBB438:
 1372               	.LSM258:
 1373 017c 8AB1      		in r24,42-32
 1374 017e 8861      		ori r24,lo8(24)
 1375 0180 8AB9      		out 42-32,r24
 1376               	.LBE438:
 1377               	.LBE437:
 1378               	.LSM259:
 1379 0182 80E0      		ldi r24,lo8(uart0.9317)
 1380 0184 90E0      		ldi r25,hi8(uart0.9317)
 1381 0186 9093 0000 		sts (__iob+2)+1,r25
 1382 018a 8093 0000 		sts __iob+2,r24
 1383               	.LSM260:
 1384 018e 9093 0000 		sts (__iob)+1,r25
 1385 0192 8093 0000 		sts __iob,r24
 1386               	.LSM261:
 1387 0196 9093 0000 		sts (__iob+4)+1,r25
 1388 019a 8093 0000 		sts __iob+4,r24
 1389               	.LBE436:
 1390               	.LBE435:
 1391               	.LSM262:
 1392 019e AB98      		cbi 53-32,3
 1393               	.LBB439:
 1394               	.LBB440:
 1395               	.LBB441:
 1396               	.LBB442:
 1397               	.LBB443:
 1398               	.LBB444:
 1399               	.LSM263:
 1400 01a0 88EE      		ldi r24,lo8(1000)
 1401 01a2 93E0      		ldi r25,hi8(1000)
 1402               	.LVL62:
 1403               	/* #APP */
 1404               	 ;  105 "c:/winavr-20100110/lib/gcc/../../avr/include/util/delay_basic.h" 1
 1405 01a4 0197      		1: sbiw r24,1
 1406 01a6 01F4      		brne 1b
 1407               	 ;  0 "" 2
 1408               	/* #NOAPP */
 1409               	.LBE444:
 1410               	.LBE443:
 1411               	.LBE442:
 1412               	.LBE441:
 1413               	.LBE440:
 1414               	.LBE439:
 1415               	.LSM264:
 1416 01a8 1092 0000 		sts j.1650,__zero_reg__
 1417               	.LBB445:
 1418               	.LBB446:
 1419               	.LBB447:
 1420               	.LBB448:
 1421               	.LBB449:
 1422               	.LBB450:
 1423               	.LSM265:
 1424 01ac 08EC      		ldi r16,lo8(200)
 1425 01ae 10E0      		ldi r17,hi8(200)
 1426 01b0 00C0      		rjmp .L110
 1427               	.LVL63:
 1428               	.L119:
 1429               	.LBE450:
 1430               	.LBE449:
 1431               	.LBE448:
 1432               	.LBE447:
 1433               	.LBE446:
 1434               	.LBE445:
 1435               	.LSM266:
 1436 01b2 80FF      		sbrs r24,0
 1437 01b4 00C0      		rjmp .L111
 1438 01b6 AF9A      		sbi 53-32,7
 1439 01b8 00C0      		rjmp .L112
 1440               	.L111:
 1441               	.LSM267:
 1442 01ba AF98      		cbi 53-32,7
 1443               	.L112:
 1444               	.LSM268:
 1445 01bc 81FF      		sbrs r24,1
 1446 01be 00C0      		rjmp .L113
 1447 01c0 AE9A      		sbi 53-32,6
 1448 01c2 00C0      		rjmp .L114
 1449               	.L113:
 1450               	.LSM269:
 1451 01c4 AE98      		cbi 53-32,6
 1452               	.L114:
 1453               	.LSM270:
 1454 01c6 82FF      		sbrs r24,2
 1455 01c8 00C0      		rjmp .L115
 1456 01ca AD9A      		sbi 53-32,5
 1457 01cc 00C0      		rjmp .L116
 1458               	.L115:
 1459               	.LSM271:
 1460 01ce AD98      		cbi 53-32,5
 1461               	.L116:
 1462               	.LSM272:
 1463 01d0 83FF      		sbrs r24,3
 1464 01d2 00C0      		rjmp .L117
 1465 01d4 AC9A      		sbi 53-32,4
 1466 01d6 00C0      		rjmp .L118
 1467               	.L117:
 1468               	.LSM273:
 1469 01d8 AC98      		cbi 53-32,4
 1470               	.L118:
 1471               	.LBB456:
 1472               	.LBB455:
 1473               	.LBB454:
 1474               	.LBB453:
 1475               	.LBB452:
 1476               	.LBB451:
 1477               	.LSM274:
 1478 01da C801      		movw r24,r16
 1479               	.LVL64:
 1480               	/* #APP */
 1481               	 ;  105 "c:/winavr-20100110/lib/gcc/../../avr/include/util/delay_basic.h" 1
 1482 01dc 0197      		1: sbiw r24,1
 1483 01de 01F4      		brne 1b
 1484               	 ;  0 "" 2
 1485               	/* #NOAPP */
 1486               	.LBE451:
 1487               	.LBE452:
 1488               	.LBE453:
 1489               	.LBE454:
 1490               	.LBE455:
 1491               	.LBE456:
 1492               	.LSM275:
 1493 01e0 81E3      		ldi r24,lo8(49)
 1494               	.LVL65:
 1495 01e2 68E0      		ldi r22,lo8(8)
 1496 01e4 0E94 0000 		call adxl345_spi_write.1523
 1497               	.LSM276:
 1498 01e8 81E3      		ldi r24,lo8(49)
 1499 01ea 68E0      		ldi r22,lo8(8)
 1500 01ec 0E94 0000 		call adxl345_spi_write.1523
 1501               	.LSM277:
 1502 01f0 8DE2      		ldi r24,lo8(45)
 1503 01f2 68E0      		ldi r22,lo8(8)
 1504 01f4 0E94 0000 		call adxl345_spi_write.1523
 1505               	.LSM278:
 1506 01f8 81E3      		ldi r24,lo8(49)
 1507 01fa 68E0      		ldi r22,lo8(8)
 1508 01fc 0E94 0000 		call adxl345_spi_write.1523
 1509               	.LSM279:
 1510 0200 8091 0000 		lds r24,j.1650
 1511 0204 8F5F      		subi r24,lo8(-(1))
 1512 0206 8093 0000 		sts j.1650,r24
 1513               	.LVL66:
 1514               	.L110:
 1515 020a 8091 0000 		lds r24,j.1650
 1516               	.LVL67:
 1517 020e 8031      		cpi r24,lo8(16)
 1518 0210 00F0      		brlo .L119
 1519               	.LSM280:
 1520 0212 16E0      		ldi r17,lo8(6)
 1521 0214 F12E      		mov r15,r17
 1522               	.LSM281:
 1523 0216 B3E0      		ldi r27,lo8(3)
 1524 0218 EB2E      		mov r14,r27
 1525               	.LSM282:
 1526 021a A0E0      		ldi r26,lo8(Bdata.1652)
 1527 021c AA2E      		mov r10,r26
 1528 021e A0E0      		ldi r26,hi8(Bdata.1652)
 1529 0220 BA2E      		mov r11,r26
 1530 0222 F9E0      		ldi r31,lo8(9)
 1531 0224 8F2E      		mov r8,r31
 1532 0226 912C      		mov r9,__zero_reg__
 1533 0228 E0E0      		ldi r30,lo8(.LC0)
 1534 022a 6E2E      		mov r6,r30
 1535 022c E0E0      		ldi r30,hi8(.LC0)
 1536 022e 7E2E      		mov r7,r30
 1537               	.LBB457:
 1538               	.LBB458:
 1539               	.LSM283:
 1540 0230 2E01      		movw r4,r28
 1541 0232 0894      		sec
 1542 0234 411C      		adc r4,__zero_reg__
 1543 0236 511C      		adc r5,__zero_reg__
 1544               	.LSM284:
 1545 0238 74E0      		ldi r23,lo8(4)
 1546 023a 272E      		mov r2,r23
 1547 023c 312C      		mov r3,__zero_reg__
 1548 023e 2C0E      		add r2,r28
 1549 0240 3D1E      		adc r3,r29
 1550               	.LBE458:
 1551               	.LBE457:
 1552               	.LBB460:
 1553               	.LBB461:
 1554               	.LBB462:
 1555               	.LBB463:
 1556               	.LBB464:
 1557               	.LBB465:
 1558               	.LSM285:
 1559 0242 64EF      		ldi r22,lo8(500)
 1560 0244 C62E      		mov r12,r22
 1561 0246 61E0      		ldi r22,hi8(500)
 1562 0248 D62E      		mov r13,r22
 1563               	.LVL68:
 1564               	.L160:
 1565               	.LBE465:
 1566               	.LBE464:
 1567               	.LBE463:
 1568               	.LBE462:
 1569               	.LBE461:
 1570               	.LBE460:
 1571               	.LSM286:
 1572 024a AA9A      		sbi 53-32,2
 1573               	.LSM287:
 1574 024c AB9A      		sbi 53-32,3
 1575               	.LSM288:
 1576 024e 8DE2      		ldi r24,lo8(45)
 1577 0250 8093 0000 		sts txBuffer.1648,r24
 1578               	.LSM289:
 1579 0254 8093 0000 		sts txBuffer.1648+1,r24
 1580               	.LSM290:
 1581 0258 6091 0000 		lds r22,__iob+2
 1582 025c 7091 0000 		lds r23,(__iob+2)+1
 1583 0260 8DE2      		ldi r24,lo8(45)
 1584 0262 90E0      		ldi r25,hi8(45)
 1585 0264 0E94 0000 		call fputc
 1586               	.LSM291:
 1587 0268 6091 0000 		lds r22,__iob+2
 1588 026c 7091 0000 		lds r23,(__iob+2)+1
 1589 0270 8DE2      		ldi r24,lo8(45)
 1590 0272 90E0      		ldi r25,hi8(45)
 1591 0274 0E94 0000 		call fputc
 1592               	.LSM292:
 1593 0278 82E0      		ldi r24,lo8(2)
 1594 027a 8093 0000 		sts j.1650,r24
 1595 027e 00C0      		rjmp .L120
 1596               	.L133:
 1597               	.LSM293:
 1598 0280 0E2F      		mov r16,r30
 1599 0282 10E0      		ldi r17,lo8(0)
 1600               	.LVL69:
 1601 0284 E0FF      		sbrs r30,0
 1602 0286 00C0      		rjmp .L121
 1603 0288 AF9A      		sbi 53-32,7
 1604 028a 00C0      		rjmp .L122
 1605               	.L121:
 1606               	.LSM294:
 1607 028c AF98      		cbi 53-32,7
 1608               	.L122:
 1609               	.LSM295:
 1610 028e 01FF      		sbrs r16,1
 1611 0290 00C0      		rjmp .L123
 1612 0292 AE9A      		sbi 53-32,6
 1613 0294 00C0      		rjmp .L124
 1614               	.L123:
 1615               	.LSM296:
 1616 0296 AE98      		cbi 53-32,6
 1617               	.L124:
 1618               	.LSM297:
 1619 0298 02FF      		sbrs r16,2
 1620 029a 00C0      		rjmp .L125
 1621 029c AD9A      		sbi 53-32,5
 1622 029e 00C0      		rjmp .L126
 1623               	.L125:
 1624               	.LSM298:
 1625 02a0 AD98      		cbi 53-32,5
 1626               	.L126:
 1627               	.LSM299:
 1628 02a2 03FF      		sbrs r16,3
 1629 02a4 00C0      		rjmp .L127
 1630 02a6 AC9A      		sbi 53-32,4
 1631 02a8 00C0      		rjmp .L128
 1632               	.L127:
 1633               	.LSM300:
 1634 02aa AC98      		cbi 53-32,4
 1635               	.L128:
 1636               	.LBB471:
 1637               	.LBB472:
 1638               	.LBB473:
 1639               	.LBB474:
 1640               	.LSM301:
 1641 02ac 85E0      		ldi r24,lo8(5)
 1642               	.LVL70:
 1643               	/* #APP */
 1644               	 ;  83 "c:/winavr-20100110/lib/gcc/../../avr/include/util/delay_basic.h" 1
 1645 02ae 8A95      		1: dec r24
 1646 02b0 01F4      		brne 1b
 1647               	 ;  0 "" 2
 1648               	/* #NOAPP */
 1649               	.LBE474:
 1650               	.LBE473:
 1651               	.LBE472:
 1652               	.LBE471:
 1653               	.LSM302:
 1654 02b2 AB98      		cbi 53-32,3
 1655               	.LBB475:
 1656               	.LBB476:
 1657               	.LBB477:
 1658               	.LBB478:
 1659               	.LSM303:
 1660 02b4 85E0      		ldi r24,lo8(5)
 1661               	.LVL71:
 1662               	/* #APP */
 1663               	 ;  83 "c:/winavr-20100110/lib/gcc/../../avr/include/util/delay_basic.h" 1
 1664 02b6 8A95      		1: dec r24
 1665 02b8 01F4      		brne 1b
 1666               	 ;  0 "" 2
 1667               	/* #NOAPP */
 1668               	.LBE478:
 1669               	.LBE477:
 1670               	.LBE476:
 1671               	.LBE475:
 1672               	.LSM304:
 1673 02ba 82EB      		ldi r24,lo8(-78)
 1674               	.LVL72:
 1675 02bc 0E94 0000 		call adxl345_spi_read.1525
 1676 02c0 F801      		movw r30,r16
 1677 02c2 EE0F      		lsl r30
 1678 02c4 FF1F      		rol r31
 1679 02c6 E00F      		add r30,r16
 1680 02c8 F11F      		adc r31,r17
 1681 02ca EE0F      		lsl r30
 1682 02cc FF1F      		rol r31
 1683 02ce E050      		subi r30,lo8(-(txBuffer.1648))
 1684 02d0 F040      		sbci r31,hi8(-(txBuffer.1648))
 1685 02d2 8383      		std Z+3,r24
 1686               	.LSM305:
 1687 02d4 8091 0000 		lds r24,j.1650
 1688 02d8 8F9D      		mul r24,r15
 1689 02da 8001      		movw r16,r0
 1690 02dc 1124      		clr r1
 1691 02de 0C5F      		subi r16,lo8(-(4))
 1692 02e0 1F4F      		sbci r17,hi8(-(4))
 1693 02e2 83EB      		ldi r24,lo8(-77)
 1694 02e4 0E94 0000 		call adxl345_spi_read.1525
 1695 02e8 0050      		subi r16,lo8(-(txBuffer.1648))
 1696 02ea 1040      		sbci r17,hi8(-(txBuffer.1648))
 1697 02ec D801      		movw r26,r16
 1698 02ee 8C93      		st X,r24
 1699               	.LSM306:
 1700 02f0 8091 0000 		lds r24,j.1650
 1701 02f4 8E9D      		mul r24,r14
 1702 02f6 8001      		movw r16,r0
 1703 02f8 1124      		clr r1
 1704 02fa 000F      		lsl r16
 1705 02fc 111F      		rol r17
 1706 02fe 0B5F      		subi r16,lo8(-(5))
 1707 0300 1F4F      		sbci r17,hi8(-(5))
 1708 0302 84EB      		ldi r24,lo8(-76)
 1709 0304 0E94 0000 		call adxl345_spi_read.1525
 1710 0308 0050      		subi r16,lo8(-(txBuffer.1648))
 1711 030a 1040      		sbci r17,hi8(-(txBuffer.1648))
 1712 030c F801      		movw r30,r16
 1713 030e 8083      		st Z,r24
 1714               	.LSM307:
 1715 0310 8091 0000 		lds r24,j.1650
 1716 0314 90E0      		ldi r25,lo8(0)
 1717 0316 0196      		adiw r24,1
 1718 0318 8C01      		movw r16,r24
 1719 031a 000F      		lsl r16
 1720 031c 111F      		rol r17
 1721 031e 080F      		add r16,r24
 1722 0320 191F      		adc r17,r25
 1723 0322 000F      		lsl r16
 1724 0324 111F      		rol r17
 1725 0326 85EB      		ldi r24,lo8(-75)
 1726 0328 0E94 0000 		call adxl345_spi_read.1525
 1727 032c 0050      		subi r16,lo8(-(txBuffer.1648))
 1728 032e 1040      		sbci r17,hi8(-(txBuffer.1648))
 1729 0330 D801      		movw r26,r16
 1730 0332 8C93      		st X,r24
 1731               	.LSM308:
 1732 0334 8091 0000 		lds r24,j.1650
 1733 0338 8F9D      		mul r24,r15
 1734 033a 8001      		movw r16,r0
 1735 033c 1124      		clr r1
 1736 033e 095F      		subi r16,lo8(-(7))
 1737 0340 1F4F      		sbci r17,hi8(-(7))
 1738 0342 86EB      		ldi r24,lo8(-74)
 1739 0344 0E94 0000 		call adxl345_spi_read.1525
 1740 0348 0050      		subi r16,lo8(-(txBuffer.1648))
 1741 034a 1040      		sbci r17,hi8(-(txBuffer.1648))
 1742 034c F801      		movw r30,r16
 1743 034e 8083      		st Z,r24
 1744               	.LSM309:
 1745 0350 8091 0000 		lds r24,j.1650
 1746 0354 8F9D      		mul r24,r15
 1747 0356 8001      		movw r16,r0
 1748 0358 1124      		clr r1
 1749 035a 085F      		subi r16,lo8(-(8))
 1750 035c 1F4F      		sbci r17,hi8(-(8))
 1751 035e 87EB      		ldi r24,lo8(-73)
 1752 0360 0E94 0000 		call adxl345_spi_read.1525
 1753 0364 0050      		subi r16,lo8(-(txBuffer.1648))
 1754 0366 1040      		sbci r17,hi8(-(txBuffer.1648))
 1755 0368 D801      		movw r26,r16
 1756 036a 8C93      		st X,r24
 1757               	.LSM310:
 1758 036c AB9A      		sbi 53-32,3
 1759               	.LSM311:
 1760 036e 1092 0000 		sts i.1649,__zero_reg__
 1761 0372 00C0      		rjmp .L129
 1762               	.L132:
 1763               	.LSM312:
 1764 0374 9E9D      		mul r25,r14
 1765 0376 C001      		movw r24,r0
 1766 0378 1124      		clr r1
 1767 037a 820F      		add r24,r18
 1768 037c 911D      		adc r25,__zero_reg__
 1769 037e 880F      		lsl r24
 1770 0380 991F      		rol r25
 1771 0382 FC01      		movw r30,r24
 1772 0384 E050      		subi r30,lo8(-(txBuffer.1648+4))
 1773 0386 F040      		sbci r31,hi8(-(txBuffer.1648+4))
 1774 0388 2081      		ld r18,Z
 1775 038a DC01      		movw r26,r24
 1776 038c 27FF      		sbrs r18,7
 1777 038e 00C0      		rjmp .L130
 1778 0390 A050      		subi r26,lo8(-(txBuffer.1648))
 1779 0392 B040      		sbci r27,hi8(-(txBuffer.1648))
 1780 0394 1396      		adiw r26,3
 1781 0396 6C91      		ld r22,X
 1782 0398 6095      		com r22
 1783 039a 70E0      		ldi r23,lo8(0)
 1784 039c 6F5F      		subi r22,lo8(-(1))
 1785 039e 7F4F      		sbci r23,hi8(-(1))
 1786 03a0 2095      		com r18
 1787 03a2 30E0      		ldi r19,lo8(0)
 1788 03a4 322F      		mov r19,r18
 1789 03a6 2227      		clr r18
 1790 03a8 620F      		add r22,r18
 1791 03aa 731F      		adc r23,r19
 1792 03ac 8827      		clr r24
 1793 03ae 77FD      		sbrc r23,7
 1794 03b0 8095      		com r24
 1795 03b2 982F      		mov r25,r24
 1796 03b4 0E94 0000 		call __floatsisf
 1797 03b8 20E0      		ldi r18,lo8(0xbb800000)
 1798 03ba 30E0      		ldi r19,hi8(0xbb800000)
 1799 03bc 40E8      		ldi r20,hlo8(0xbb800000)
 1800 03be 5BEB      		ldi r21,hhi8(0xbb800000)
 1801 03c0 00C0      		rjmp .L161
 1802               	.L130:
 1803               	.LSM313:
 1804 03c2 622F      		mov r22,r18
 1805 03c4 70E0      		ldi r23,lo8(0)
 1806 03c6 762F      		mov r23,r22
 1807 03c8 6627      		clr r22
 1808 03ca A050      		subi r26,lo8(-(txBuffer.1648))
 1809 03cc B040      		sbci r27,hi8(-(txBuffer.1648))
 1810 03ce 1396      		adiw r26,3
 1811 03d0 2C91      		ld r18,X
 1812 03d2 620F      		add r22,r18
 1813 03d4 711D      		adc r23,__zero_reg__
 1814 03d6 8827      		clr r24
 1815 03d8 77FD      		sbrc r23,7
 1816 03da 8095      		com r24
 1817 03dc 982F      		mov r25,r24
 1818 03de 0E94 0000 		call __floatsisf
 1819 03e2 20E0      		ldi r18,lo8(0x3b800000)
 1820 03e4 30E0      		ldi r19,hi8(0x3b800000)
 1821 03e6 40E8      		ldi r20,hlo8(0x3b800000)
 1822 03e8 5BE3      		ldi r21,hhi8(0x3b800000)
 1823               	.L161:
 1824 03ea 0E94 0000 		call __mulsf3
 1825 03ee 6093 0000 		sts tempresult.1651,r22
 1826 03f2 7093 0000 		sts (tempresult.1651)+1,r23
 1827 03f6 8093 0000 		sts (tempresult.1651)+2,r24
 1828 03fa 9093 0000 		sts (tempresult.1651)+3,r25
 1829               	.LSM314:
 1830 03fe EDB7      		in r30,__SP_L__
 1831 0400 FEB7      		in r31,__SP_H__
 1832 0402 3A97      		sbiw r30,10
 1833 0404 0FB6      		in __tmp_reg__,__SREG__
 1834 0406 F894      		cli
 1835 0408 FEBF      		out __SP_H__,r31
 1836 040a 0FBE      		out __SREG__,__tmp_reg__
 1837 040c EDBF      		out __SP_L__,r30
 1838 040e 3196      		adiw r30,1
 1839 0410 ADB7      		in r26,__SP_L__
 1840 0412 BEB7      		in r27,__SP_H__
 1841 0414 1296      		adiw r26,1+1
 1842 0416 BC92      		st X,r11
 1843 0418 AE92      		st -X,r10
 1844 041a 1197      		sbiw r26,1
 1845 041c 9382      		std Z+3,r9
 1846 041e 8282      		std Z+2,r8
 1847 0420 7582      		std Z+5,r7
 1848 0422 6482      		std Z+4,r6
 1849 0424 8091 0000 		lds r24,tempresult.1651
 1850 0428 9091 0000 		lds r25,(tempresult.1651)+1
 1851 042c A091 0000 		lds r26,(tempresult.1651)+2
 1852 0430 B091 0000 		lds r27,(tempresult.1651)+3
 1853 0434 8683      		std Z+6,r24
 1854 0436 9783      		std Z+7,r25
 1855 0438 A087      		std Z+8,r26
 1856 043a B187      		std Z+9,r27
 1857 043c 0E94 0000 		call snprintf
 1858               	.LSM315:
 1859 0440 EDB7      		in r30,__SP_L__
 1860 0442 FEB7      		in r31,__SP_H__
 1861 0444 3A96      		adiw r30,10
 1862 0446 0FB6      		in __tmp_reg__,__SREG__
 1863 0448 F894      		cli
 1864 044a FEBF      		out __SP_H__,r31
 1865 044c 0FBE      		out __SREG__,__tmp_reg__
 1866 044e EDBF      		out __SP_L__,r30
 1867 0450 8091 0000 		lds r24,Bdata.1652
 1868 0454 6091 0000 		lds r22,__iob+2
 1869 0458 7091 0000 		lds r23,(__iob+2)+1
 1870 045c 90E0      		ldi r25,lo8(0)
 1871 045e 0E94 0000 		call fputc
 1872               	.LSM316:
 1873 0462 8091 0000 		lds r24,Bdata.1652+1
 1874 0466 6091 0000 		lds r22,__iob+2
 1875 046a 7091 0000 		lds r23,(__iob+2)+1
 1876 046e 90E0      		ldi r25,lo8(0)
 1877 0470 0E94 0000 		call fputc
 1878               	.LSM317:
 1879 0474 8091 0000 		lds r24,Bdata.1652+2
 1880 0478 6091 0000 		lds r22,__iob+2
 1881 047c 7091 0000 		lds r23,(__iob+2)+1
 1882 0480 90E0      		ldi r25,lo8(0)
 1883 0482 0E94 0000 		call fputc
 1884               	.LSM318:
 1885 0486 8091 0000 		lds r24,Bdata.1652+3
 1886 048a 6091 0000 		lds r22,__iob+2
 1887 048e 7091 0000 		lds r23,(__iob+2)+1
 1888 0492 90E0      		ldi r25,lo8(0)
 1889 0494 0E94 0000 		call fputc
 1890               	.LSM319:
 1891 0498 8091 0000 		lds r24,Bdata.1652+4
 1892 049c 6091 0000 		lds r22,__iob+2
 1893 04a0 7091 0000 		lds r23,(__iob+2)+1
 1894 04a4 90E0      		ldi r25,lo8(0)
 1895 04a6 0E94 0000 		call fputc
 1896               	.LSM320:
 1897 04aa 6091 0000 		lds r22,__iob+2
 1898 04ae 7091 0000 		lds r23,(__iob+2)+1
 1899 04b2 8CE2      		ldi r24,lo8(44)
 1900 04b4 90E0      		ldi r25,hi8(44)
 1901 04b6 0E94 0000 		call fputc
 1902               	.LSM321:
 1903 04ba 8091 0000 		lds r24,i.1649
 1904 04be 8F5F      		subi r24,lo8(-(1))
 1905 04c0 8093 0000 		sts i.1649,r24
 1906               	.L129:
 1907 04c4 2091 0000 		lds r18,i.1649
 1908 04c8 9091 0000 		lds r25,j.1650
 1909 04cc 2330      		cpi r18,lo8(3)
 1910 04ce 00F4      		brsh .+2
 1911 04d0 00C0      		rjmp .L132
 1912               	.LSM322:
 1913 04d2 9F5F      		subi r25,lo8(-(1))
 1914 04d4 9093 0000 		sts j.1650,r25
 1915               	.LVL73:
 1916               	.L120:
 1917 04d8 E091 0000 		lds r30,j.1650
 1918 04dc E530      		cpi r30,lo8(5)
 1919 04de 00F4      		brsh .+2
 1920 04e0 00C0      		rjmp .L133
 1921               	.LSM323:
 1922 04e2 80E8      		ldi r24,lo8(-31616)
 1923 04e4 94E8      		ldi r25,hi8(-31616)
 1924 04e6 9B83      		std Y+3,r25
 1925 04e8 8A83      		std Y+2,r24
 1926               	.LVL74:
 1927               	.LBB479:
 1928               	.LBB459:
 1929               	.LSM324:
 1930 04ea 81E6      		ldi r24,lo8(-30623)
 1931 04ec 98E8      		ldi r25,hi8(-30623)
 1932 04ee 9D83      		std Y+5,r25
 1933 04f0 8C83      		std Y+4,r24
 1934               	.LVL75:
 1935               	.LSM325:
 1936 04f2 8EE6      		ldi r24,lo8(110)
 1937 04f4 8983      		std Y+1,r24
 1938               	.LVL76:
 1939               	.LSM326:
 1940 04f6 1091 0000 		lds r17,rf_mode.9880
 1941               	.LSM327:
 1942 04fa 82E0      		ldi r24,lo8(2)
 1943 04fc 0E94 0000 		call rf_setMode.1476
 1944               	.L159:
 1945               	.LSM328:
 1946 0500 0C99      		sbic 33-32,4
 1947 0502 00C0      		rjmp .L159
 1948 0504 8499      		sbic 48-32,4
 1949 0506 00C0      		rjmp .L159
 1950               	.LSM329:
 1951               	/* #APP */
 1952               	 ;  294 "../../library/avr/rf_2420.c" 1
 1953 0508 F894      		cli
 1954               	 ;  0 "" 2
 1955               	.LSM330:
 1956               	/* #NOAPP */
 1957 050a 89E0      		ldi r24,lo8(9)
 1958 050c 0E94 0000 		call sendByte.9862
 1959               	.LSM331:
 1960 0510 C201      		movw r24,r4
 1961 0512 61E0      		ldi r22,lo8(1)
 1962 0514 0E94 0000 		call writeFifo.9870
 1963               	.LSM332:
 1964 0518 C101      		movw r24,r2
 1965 051a 62E0      		ldi r22,lo8(2)
 1966 051c 0E94 0000 		call writeFifo.9870
 1967               	.LSM333:
 1968 0520 80E0      		ldi r24,lo8(txSeqNumber.9876)
 1969 0522 90E0      		ldi r25,hi8(txSeqNumber.9876)
 1970 0524 61E0      		ldi r22,lo8(1)
 1971 0526 0E94 0000 		call writeFifo.9870
 1972               	.LSM334:
 1973 052a 80E0      		ldi r24,lo8(panId.9878)
 1974 052c 90E0      		ldi r25,hi8(panId.9878)
 1975 052e 62E0      		ldi r22,lo8(2)
 1976 0530 0E94 0000 		call writeFifo.9870
 1977               	.LSM335:
 1978 0534 CE01      		movw r24,r28
 1979 0536 0296      		adiw r24,2
 1980 0538 62E0      		ldi r22,lo8(2)
 1981 053a 0E94 0000 		call writeFifo.9870
 1982               	.LSM336:
 1983 053e 80E0      		ldi r24,lo8(shortAddress.9877)
 1984 0540 90E0      		ldi r25,hi8(shortAddress.9877)
 1985 0542 62E0      		ldi r22,lo8(2)
 1986 0544 0E94 0000 		call writeFifo.9870
 1987               	.LSM337:
 1988 0548 80E0      		ldi r24,lo8(txBuffer.1648)
 1989 054a 90E0      		ldi r25,hi8(txBuffer.1648)
 1990 054c 63E6      		ldi r22,lo8(99)
 1991 054e 0E94 0000 		call writeFifo.9870
 1992               	.LSM338:
 1993 0552 84E0      		ldi r24,lo8(4)
 1994 0554 0E94 0000 		call sendByte.9862
 1995               	.L135:
 1996               	.LSM339:
 1997 0558 849B      		sbis 48-32,4
 1998 055a 00C0      		rjmp .L135
 1999               	.LSM340:
 2000 055c 8091 0000 		lds r24,txSeqNumber.9876
 2001 0560 8F5F      		subi r24,lo8(-(1))
 2002 0562 8093 0000 		sts txSeqNumber.9876,r24
 2003               	.LSM341:
 2004 0566 812F      		mov r24,r17
 2005 0568 0E94 0000 		call rf_setMode.1476
 2006               	.LSM342:
 2007               	/* #APP */
 2008               	 ;  348 "../../library/avr/rf_2420.c" 1
 2009 056c 7894      		sei
 2010               	 ;  0 "" 2
 2011               	/* #NOAPP */
 2012               	.LBE459:
 2013               	.LBE479:
 2014               	.LSM343:
 2015 056e 82E0      		ldi r24,lo8(2)
 2016 0570 8093 0000 		sts j.1650,r24
 2017 0574 00C0      		rjmp .L136
 2018               	.L148:
 2019               	.LSM344:
 2020 0576 80FF      		sbrs r24,0
 2021 0578 00C0      		rjmp .L137
 2022 057a AF9A      		sbi 53-32,7
 2023 057c 00C0      		rjmp .L138
 2024               	.L137:
 2025               	.LSM345:
 2026 057e AF98      		cbi 53-32,7
 2027               	.L138:
 2028               	.LSM346:
 2029 0580 81FF      		sbrs r24,1
 2030 0582 00C0      		rjmp .L139
 2031 0584 AE9A      		sbi 53-32,6
 2032 0586 00C0      		rjmp .L140
 2033               	.L139:
 2034               	.LSM347:
 2035 0588 AE98      		cbi 53-32,6
 2036               	.L140:
 2037               	.LSM348:
 2038 058a 82FF      		sbrs r24,2
 2039 058c 00C0      		rjmp .L141
 2040 058e AD9A      		sbi 53-32,5
 2041 0590 00C0      		rjmp .L142
 2042               	.L141:
 2043               	.LSM349:
 2044 0592 AD98      		cbi 53-32,5
 2045               	.L142:
 2046               	.LSM350:
 2047 0594 83FF      		sbrs r24,3
 2048 0596 00C0      		rjmp .L143
 2049 0598 AC9A      		sbi 53-32,4
 2050 059a 00C0      		rjmp .L144
 2051               	.L143:
 2052               	.LSM351:
 2053 059c AC98      		cbi 53-32,4
 2054               	.L144:
 2055               	.LBB480:
 2056               	.LBB481:
 2057               	.LBB482:
 2058               	.LBB483:
 2059               	.LSM352:
 2060 059e 8AE1      		ldi r24,lo8(26)
 2061               	.LVL77:
 2062               	/* #APP */
 2063               	 ;  83 "c:/winavr-20100110/lib/gcc/../../avr/include/util/delay_basic.h" 1
 2064 05a0 8A95      		1: dec r24
 2065 05a2 01F4      		brne 1b
 2066               	 ;  0 "" 2
 2067               	/* #NOAPP */
 2068               	.LBE483:
 2069               	.LBE482:
 2070               	.LBE481:
 2071               	.LBE480:
 2072               	.LSM353:
 2073 05a4 AA98      		cbi 53-32,2
 2074               	.LBB484:
 2075               	.LBB485:
 2076               	.LBB486:
 2077               	.LBB487:
 2078               	.LSM354:
 2079 05a6 80EF      		ldi r24,lo8(-16)
 2080               	.LVL78:
 2081               	/* #APP */
 2082               	 ;  83 "c:/winavr-20100110/lib/gcc/../../avr/include/util/delay_basic.h" 1
 2083 05a8 8A95      		1: dec r24
 2084 05aa 01F4      		brne 1b
 2085               	 ;  0 "" 2
 2086               	/* #NOAPP */
 2087               	.LBE487:
 2088               	.LBE486:
 2089               	.LBE485:
 2090               	.LBE484:
 2091               	.LBB488:
 2092               	.LBB470:
 2093               	.LBB469:
 2094               	.LBB468:
 2095               	.LBB467:
 2096               	.LBB466:
 2097               	.LSM355:
 2098 05ac C601      		movw r24,r12
 2099               	.LVL79:
 2100               	/* #APP */
 2101               	 ;  105 "c:/winavr-20100110/lib/gcc/../../avr/include/util/delay_basic.h" 1
 2102 05ae 0197      		1: sbiw r24,1
 2103 05b0 01F4      		brne 1b
 2104               	 ;  0 "" 2
 2105               	/* #NOAPP */
 2106               	.LBE466:
 2107               	.LBE467:
 2108               	.LBE468:
 2109               	.LBE469:
 2110               	.LBE470:
 2111               	.LBE488:
 2112               	.LBB489:
 2113               	.LBB490:
 2114               	.LBB491:
 2115               	.LBB492:
 2116               	.LBB493:
 2117               	.LBB494:
 2118 05b2 C601      		movw r24,r12
 2119               	.LVL80:
 2120               	/* #APP */
 2121               	 ;  105 "c:/winavr-20100110/lib/gcc/../../avr/include/util/delay_basic.h" 1
 2122 05b4 0197      		1: sbiw r24,1
 2123 05b6 01F4      		brne 1b
 2124               	 ;  0 "" 2
 2125               	/* #NOAPP */
 2126               	.LBE494:
 2127               	.LBE493:
 2128               	.LBE492:
 2129               	.LBE491:
 2130               	.LBE490:
 2131               	.LBE489:
 2132               	.LSM356:
 2133 05b8 82E0      		ldi r24,lo8(2)
 2134               	.LVL81:
 2135 05ba 6AE0      		ldi r22,lo8(10)
 2136 05bc 41E0      		ldi r20,lo8(1)
 2137 05be 0E94 0000 		call adc_init.1365
 2138               	.LSM357:
 2139 05c2 0E94 0000 		call adc_singleConversion.1374
 2140 05c6 9093 0000 		sts (adcValue.1653)+1,r25
 2141 05ca 8093 0000 		sts adcValue.1653,r24
 2142               	.LSM358:
 2143 05ce 2091 0000 		lds r18,j.1650
 2144 05d2 30E0      		ldi r19,lo8(0)
 2145 05d4 F901      		movw r30,r18
 2146 05d6 EE0F      		lsl r30
 2147 05d8 FF1F      		rol r31
 2148 05da E20F      		add r30,r18
 2149 05dc F31F      		adc r31,r19
 2150 05de EE0F      		lsl r30
 2151 05e0 FF1F      		rol r31
 2152 05e2 E050      		subi r30,lo8(-(txBuffer.1648))
 2153 05e4 F040      		sbci r31,hi8(-(txBuffer.1648))
 2154 05e6 292F      		mov r18,r25
 2155 05e8 3327      		clr r19
 2156               	.LVL82:
 2157 05ea 2383      		std Z+3,r18
 2158               	.LSM359:
 2159 05ec 8483      		std Z+4,r24
 2160               	.LSM360:
 2161 05ee 81E0      		ldi r24,lo8(1)
 2162 05f0 6AE0      		ldi r22,lo8(10)
 2163 05f2 41E0      		ldi r20,lo8(1)
 2164 05f4 0E94 0000 		call adc_init.1365
 2165               	.LSM361:
 2166 05f8 0E94 0000 		call adc_singleConversion.1374
 2167 05fc 9093 0000 		sts (adcValue.1653)+1,r25
 2168 0600 8093 0000 		sts adcValue.1653,r24
 2169               	.LSM362:
 2170 0604 2091 0000 		lds r18,j.1650
 2171 0608 30E0      		ldi r19,lo8(0)
 2172 060a F901      		movw r30,r18
 2173 060c EE0F      		lsl r30
 2174 060e FF1F      		rol r31
 2175 0610 E20F      		add r30,r18
 2176 0612 F31F      		adc r31,r19
 2177 0614 EE0F      		lsl r30
 2178 0616 FF1F      		rol r31
 2179 0618 E050      		subi r30,lo8(-(txBuffer.1648+2))
 2180 061a F040      		sbci r31,hi8(-(txBuffer.1648+2))
 2181 061c 492F      		mov r20,r25
 2182 061e 5527      		clr r21
 2183 0620 4383      		std Z+3,r20
 2184               	.LSM363:
 2185 0622 2F5F      		subi r18,lo8(-(1))
 2186 0624 3F4F      		sbci r19,hi8(-(1))
 2187 0626 F901      		movw r30,r18
 2188 0628 EE0F      		lsl r30
 2189 062a FF1F      		rol r31
 2190 062c E20F      		add r30,r18
 2191 062e F31F      		adc r31,r19
 2192 0630 EE0F      		lsl r30
 2193 0632 FF1F      		rol r31
 2194 0634 E050      		subi r30,lo8(-(txBuffer.1648))
 2195 0636 F040      		sbci r31,hi8(-(txBuffer.1648))
 2196 0638 8083      		st Z,r24
 2197               	.LSM364:
 2198 063a 83E0      		ldi r24,lo8(3)
 2199 063c 6AE0      		ldi r22,lo8(10)
 2200 063e 41E0      		ldi r20,lo8(1)
 2201 0640 0E94 0000 		call adc_init.1365
 2202               	.LSM365:
 2203 0644 0E94 0000 		call adc_singleConversion.1374
 2204 0648 9093 0000 		sts (adcValue.1653)+1,r25
 2205 064c 8093 0000 		sts adcValue.1653,r24
 2206               	.LSM366:
 2207 0650 2091 0000 		lds r18,j.1650
 2208 0654 30E0      		ldi r19,lo8(0)
 2209 0656 F901      		movw r30,r18
 2210 0658 EE0F      		lsl r30
 2211 065a FF1F      		rol r31
 2212 065c E20F      		add r30,r18
 2213 065e F31F      		adc r31,r19
 2214 0660 EE0F      		lsl r30
 2215 0662 FF1F      		rol r31
 2216 0664 E050      		subi r30,lo8(-(txBuffer.1648))
 2217 0666 F040      		sbci r31,hi8(-(txBuffer.1648))
 2218 0668 292F      		mov r18,r25
 2219 066a 3327      		clr r19
 2220 066c 2783      		std Z+7,r18
 2221               	.LSM367:
 2222 066e 8087      		std Z+8,r24
 2223               	.LSM368:
 2224 0670 AA9A      		sbi 53-32,2
 2225               	.LSM369:
 2226 0672 1092 0000 		sts i.1649,__zero_reg__
 2227 0676 00C0      		rjmp .L145
 2228               	.L147:
 2229               	.LSM370:
 2230 0678 9E9D      		mul r25,r14
 2231 067a F001      		movw r30,r0
 2232 067c 1124      		clr r1
 2233 067e EE0F      		lsl r30
 2234 0680 FF1F      		rol r31
 2235 0682 DF01      		movw r26,r30
 2236 0684 A050      		subi r26,lo8(-(txBuffer.1648))
 2237 0686 B040      		sbci r27,hi8(-(txBuffer.1648))
 2238 0688 1396      		adiw r26,3
 2239 068a 6C91      		ld r22,X
 2240 068c 70E0      		ldi r23,lo8(0)
 2241 068e 6370      		andi r22,lo8(3)
 2242 0690 7070      		andi r23,hi8(3)
 2243 0692 762F      		mov r23,r22
 2244 0694 6627      		clr r22
 2245 0696 E050      		subi r30,lo8(-(txBuffer.1648+4))
 2246 0698 F040      		sbci r31,hi8(-(txBuffer.1648+4))
 2247 069a 2081      		ld r18,Z
 2248 069c 620F      		add r22,r18
 2249 069e 711D      		adc r23,__zero_reg__
 2250 06a0 8827      		clr r24
 2251 06a2 77FD      		sbrc r23,7
 2252 06a4 8095      		com r24
 2253 06a6 982F      		mov r25,r24
 2254 06a8 0E94 0000 		call __floatsisf
 2255 06ac 23E3      		ldi r18,lo8(0x3b533333)
 2256 06ae 33E3      		ldi r19,hi8(0x3b533333)
 2257 06b0 43E5      		ldi r20,hlo8(0x3b533333)
 2258 06b2 5BE3      		ldi r21,hhi8(0x3b533333)
 2259 06b4 0E94 0000 		call __mulsf3
 2260 06b8 6093 0000 		sts tempresult.1651,r22
 2261 06bc 7093 0000 		sts (tempresult.1651)+1,r23
 2262 06c0 8093 0000 		sts (tempresult.1651)+2,r24
 2263 06c4 9093 0000 		sts (tempresult.1651)+3,r25
 2264               	.LSM371:
 2265 06c8 2DB7      		in r18,__SP_L__
 2266 06ca 3EB7      		in r19,__SP_H__
 2267 06cc 2A50      		subi r18,lo8(-(-10))
 2268 06ce 3040      		sbci r19,hi8(-(-10))
 2269 06d0 0FB6      		in __tmp_reg__,__SREG__
 2270 06d2 F894      		cli
 2271 06d4 3EBF      		out __SP_H__,r19
 2272 06d6 0FBE      		out __SREG__,__tmp_reg__
 2273 06d8 2DBF      		out __SP_L__,r18
 2274 06da EDB7      		in r30,__SP_L__
 2275 06dc FEB7      		in r31,__SP_H__
 2276 06de 3196      		adiw r30,1
 2277 06e0 ADB7      		in r26,__SP_L__
 2278 06e2 BEB7      		in r27,__SP_H__
 2279 06e4 1296      		adiw r26,1+1
 2280 06e6 BC92      		st X,r11
 2281 06e8 AE92      		st -X,r10
 2282 06ea 1197      		sbiw r26,1
 2283 06ec 9382      		std Z+3,r9
 2284 06ee 8282      		std Z+2,r8
 2285 06f0 7582      		std Z+5,r7
 2286 06f2 6482      		std Z+4,r6
 2287 06f4 6683      		std Z+6,r22
 2288 06f6 7783      		std Z+7,r23
 2289 06f8 8087      		std Z+8,r24
 2290 06fa 9187      		std Z+9,r25
 2291 06fc 0E94 0000 		call snprintf
 2292               	.LSM372:
 2293 0700 EDB7      		in r30,__SP_L__
 2294 0702 FEB7      		in r31,__SP_H__
 2295 0704 3A96      		adiw r30,10
 2296 0706 0FB6      		in __tmp_reg__,__SREG__
 2297 0708 F894      		cli
 2298 070a FEBF      		out __SP_H__,r31
 2299 070c 0FBE      		out __SREG__,__tmp_reg__
 2300 070e EDBF      		out __SP_L__,r30
 2301 0710 8091 0000 		lds r24,i.1649
 2302 0714 8823      		tst r24
 2303 0716 01F4      		brne .L146
 2304               	.LSM373:
 2305 0718 8091 0000 		lds r24,Bdata.1652
 2306 071c 6091 0000 		lds r22,__iob+2
 2307 0720 7091 0000 		lds r23,(__iob+2)+1
 2308 0724 90E0      		ldi r25,lo8(0)
 2309 0726 0E94 0000 		call fputc
 2310               	.LSM374:
 2311 072a 8091 0000 		lds r24,Bdata.1652+1
 2312 072e 6091 0000 		lds r22,__iob+2
 2313 0732 7091 0000 		lds r23,(__iob+2)+1
 2314 0736 90E0      		ldi r25,lo8(0)
 2315 0738 0E94 0000 		call fputc
 2316               	.LSM375:
 2317 073c 8091 0000 		lds r24,Bdata.1652+2
 2318 0740 6091 0000 		lds r22,__iob+2
 2319 0744 7091 0000 		lds r23,(__iob+2)+1
 2320 0748 90E0      		ldi r25,lo8(0)
 2321 074a 0E94 0000 		call fputc
 2322               	.LSM376:
 2323 074e 8091 0000 		lds r24,Bdata.1652+3
 2324 0752 6091 0000 		lds r22,__iob+2
 2325 0756 7091 0000 		lds r23,(__iob+2)+1
 2326 075a 90E0      		ldi r25,lo8(0)
 2327 075c 0E94 0000 		call fputc
 2328               	.LSM377:
 2329 0760 8091 0000 		lds r24,Bdata.1652+4
 2330 0764 6091 0000 		lds r22,__iob+2
 2331 0768 7091 0000 		lds r23,(__iob+2)+1
 2332 076c 90E0      		ldi r25,lo8(0)
 2333 076e 0E94 0000 		call fputc
 2334               	.LSM378:
 2335 0772 6091 0000 		lds r22,__iob+2
 2336 0776 7091 0000 		lds r23,(__iob+2)+1
 2337 077a 8CE2      		ldi r24,lo8(44)
 2338 077c 90E0      		ldi r25,hi8(44)
 2339 077e 0E94 0000 		call fputc
 2340               	.L146:
 2341               	.LSM379:
 2342 0782 8091 0000 		lds r24,i.1649
 2343 0786 8F5F      		subi r24,lo8(-(1))
 2344 0788 8093 0000 		sts i.1649,r24
 2345               	.L145:
 2346 078c 8091 0000 		lds r24,i.1649
 2347 0790 9091 0000 		lds r25,j.1650
 2348 0794 8823      		tst r24
 2349 0796 01F4      		brne .+2
 2350 0798 00C0      		rjmp .L147
 2351               	.LSM380:
 2352 079a 9F5F      		subi r25,lo8(-(1))
 2353 079c 9093 0000 		sts j.1650,r25
 2354               	.LVL83:
 2355               	.L136:
 2356 07a0 8091 0000 		lds r24,j.1650
 2357 07a4 8530      		cpi r24,lo8(5)
 2358 07a6 00F4      		brsh .+2
 2359 07a8 00C0      		rjmp .L148
 2360               	.LSM381:
 2361 07aa 6091 0000 		lds r22,__iob+2
 2362 07ae 7091 0000 		lds r23,(__iob+2)+1
 2363 07b2 8AE0      		ldi r24,lo8(10)
 2364 07b4 90E0      		ldi r25,hi8(10)
 2365 07b6 0E94 0000 		call fputc
 2366 07ba 00C0      		rjmp .L160
 2367               	.LFE15:
 2369               		.section	.text.getFifo.9873,"ax",@progbits
 2371               	getFifo.9873:
 2372               	.LFB192:
 2373               	.LSM382:
 2374               	.LVL84:
 2375               	/* prologue: function */
 2376               	/* frame size = 0 */
 2377 0000 9C01      		movw r18,r24
 2378               	.LBB495:
 2379               	.LBB496:
 2380               	.LSM383:
 2381 0002 C098      		cbi 56-32,0
 2382               	.LBE496:
 2383               	.LBE495:
 2384               	.LBB497:
 2385               	.LBB498:
 2386               	.LSM384:
 2387 0004 8FE7      		ldi r24,lo8(127)
 2388               	.LVL85:
 2389 0006 8FB9      		out 47-32,r24
 2390               	.L163:
 2391               	.LSM385:
 2392 0008 779B      		sbis 46-32,7
 2393 000a 00C0      		rjmp .L163
 2394               	.LSM386:
 2395 000c 8FB1      		in r24,47-32
 2396 000e F901      		movw r30,r18
 2397 0010 90E0      		ldi r25,lo8(0)
 2398               	.LVL86:
 2399 0012 00C0      		rjmp .L164
 2400               	.L166:
 2401               	.LBE498:
 2402               	.LBE497:
 2403               	.LBB499:
 2404               	.LBB500:
 2405               	.LBB501:
 2406               	.LSM387:
 2407 0014 1FB8      		out 47-32,__zero_reg__
 2408               	.L165:
 2409               	.LSM388:
 2410 0016 779B      		sbis 46-32,7
 2411 0018 00C0      		rjmp .L165
 2412               	.LSM389:
 2413 001a 8FB1      		in r24,47-32
 2414               	.LBE501:
 2415               	.LBE500:
 2416               	.LSM390:
 2417 001c 8193      		st Z+,r24
 2418               	.LSM391:
 2419 001e 9F5F      		subi r25,lo8(-(1))
 2420               	.L164:
 2421 0020 9617      		cp r25,r22
 2422 0022 00F0      		brlo .L166
 2423               	.LBE499:
 2424               	.LBB502:
 2425               	.LBB503:
 2426               	.LSM392:
 2427 0024 C09A      		sbi 56-32,0
 2428               	/* epilogue start */
 2429               	.LBE503:
 2430               	.LBE502:
 2431               	.LSM393:
 2432 0026 0895      		ret
 2433               	.LFE192:
 2435               		.section	.text.discardFifo.9875,"ax",@progbits
 2437               	discardFifo.9875:
 2438               	.LFB193:
 2439               	.LSM394:
 2440               	.LVL87:
 2441               	/* prologue: function */
 2442               	/* frame size = 0 */
 2443 0000 982F      		mov r25,r24
 2444               	.LBB504:
 2445               	.LBB505:
 2446               	.LSM395:
 2447 0002 C098      		cbi 56-32,0
 2448               	.LBE505:
 2449               	.LBE504:
 2450               	.LBB506:
 2451               	.LBB507:
 2452               	.LSM396:
 2453 0004 8FE7      		ldi r24,lo8(127)
 2454               	.LVL88:
 2455 0006 8FB9      		out 47-32,r24
 2456               	.L171:
 2457               	.LSM397:
 2458 0008 779B      		sbis 46-32,7
 2459 000a 00C0      		rjmp .L171
 2460               	.LSM398:
 2461 000c 8FB1      		in r24,47-32
 2462 000e 80E0      		ldi r24,lo8(0)
 2463               	.LVL89:
 2464 0010 00C0      		rjmp .L172
 2465               	.L175:
 2466               	.LBE507:
 2467               	.LBE506:
 2468               	.LBB508:
 2469               	.LBB509:
 2470               	.LBB510:
 2471               	.LSM399:
 2472 0012 1FB8      		out 47-32,__zero_reg__
 2473               	.L173:
 2474               	.LSM400:
 2475 0014 779B      		sbis 46-32,7
 2476 0016 00C0      		rjmp .L173
 2477               	.LSM401:
 2478 0018 2FB1      		in r18,47-32
 2479               	.LBE510:
 2480               	.LBE509:
 2481               	.LSM402:
 2482 001a 8F5F      		subi r24,lo8(-(1))
 2483               	.L172:
 2484 001c 8917      		cp r24,r25
 2485 001e 00F4      		brsh .L174
 2486 0020 0D99      		sbic 33-32,5
 2487 0022 00C0      		rjmp .L175
 2488               	.L174:
 2489               	.LBE508:
 2490               	.LBB511:
 2491               	.LBB512:
 2492               	.LSM403:
 2493 0024 C09A      		sbi 56-32,0
 2494               	/* epilogue start */
 2495               	.LBE512:
 2496               	.LBE511:
 2497               	.LSM404:
 2498 0026 0895      		ret
 2499               	.LFE193:
 2501               		.section	.text.__vector_5,"ax",@progbits
 2502               	.global	__vector_5
 2504               	__vector_5:
 2505               	.LFB186:
 2506               	.LSM405:
 2507 0000 1F92      		push __zero_reg__
 2508 0002 0F92      		push r0
 2509 0004 0FB6      		in r0,__SREG__
 2510 0006 0F92      		push r0
 2511 0008 0BB6      		in r0,91-32
 2512 000a 0F92      		push r0
 2513 000c 1124      		clr __zero_reg__
 2514 000e 0F93      		push r16
 2515 0010 1F93      		push r17
 2516 0012 2F93      		push r18
 2517 0014 3F93      		push r19
 2518 0016 4F93      		push r20
 2519 0018 5F93      		push r21
 2520 001a 6F93      		push r22
 2521 001c 7F93      		push r23
 2522 001e 8F93      		push r24
 2523 0020 9F93      		push r25
 2524 0022 AF93      		push r26
 2525 0024 BF93      		push r27
 2526 0026 EF93      		push r30
 2527 0028 FF93      		push r31
 2528 002a DF93      		push r29
 2529 002c CF93      		push r28
 2530 002e 00D0      		rcall .
 2531 0030 00D0      		rcall .
 2532 0032 0F92      		push __tmp_reg__
 2533 0034 CDB7      		in r28,__SP_L__
 2534 0036 DEB7      		in r29,__SP_H__
 2535               	/* prologue: Signal */
 2536               	/* frame size = 5 */
 2537               	.LSM406:
 2538 0038 0C9B      		sbis 33-32,4
 2539 003a 00C0      		rjmp .L180
 2540 003c 0D99      		sbic 33-32,5
 2541 003e 00C0      		rjmp .L180
 2542               	.LSM407:
 2543 0040 88E0      		ldi r24,lo8(8)
 2544 0042 0E94 0000 		call sendByte.9862
 2545 0046 00C0      		rjmp .L183
 2546               	.L180:
 2547               	.LSM408:
 2548 0048 CE01      		movw r24,r28
 2549 004a 0196      		adiw r24,1
 2550 004c 61E0      		ldi r22,lo8(1)
 2551 004e 0E94 0000 		call getFifo.9873
 2552               	.LSM409:
 2553 0052 8981      		ldd r24,Y+1
 2554               	.LVL90:
 2555 0054 8F77      		andi r24,lo8(127)
 2556               	.LVL91:
 2557 0056 8983      		std Y+1,r24
 2558               	.LSM410:
 2559 0058 8B30      		cpi r24,lo8(11)
 2560 005a 00F4      		brsh .L182
 2561               	.LSM411:
 2562 005c 0E94 0000 		call discardFifo.9875
 2563               	.LVL92:
 2564 0060 00C0      		rjmp .L183
 2565               	.LVL93:
 2566               	.L182:
 2567               	.LSM412:
 2568 0062 0091 0000 		lds r16,buffer.9879
 2569 0066 1091 0000 		lds r17,(buffer.9879)+1
 2570 006a 8B50      		subi r24,lo8(-(-11))
 2571 006c F801      		movw r30,r16
 2572 006e 8083      		st Z,r24
 2573               	.LSM413:
 2574 0070 CE01      		movw r24,r28
 2575               	.LVL94:
 2576 0072 0296      		adiw r24,2
 2577 0074 62E0      		ldi r22,lo8(2)
 2578 0076 0E94 0000 		call getFifo.9873
 2579               	.LSM414:
 2580 007a C801      		movw r24,r16
 2581 007c 0396      		adiw r24,3
 2582 007e 61E0      		ldi r22,lo8(1)
 2583 0080 0E94 0000 		call getFifo.9873
 2584               	.LSM415:
 2585 0084 84E0      		ldi r24,lo8(4)
 2586 0086 0E94 0000 		call discardFifo.9875
 2587               	.LSM416:
 2588 008a C801      		movw r24,r16
 2589 008c 0196      		adiw r24,1
 2590 008e 62E0      		ldi r22,lo8(2)
 2591 0090 0E94 0000 		call getFifo.9873
 2592               	.LSM417:
 2593 0094 F801      		movw r30,r16
 2594 0096 8581      		ldd r24,Z+5
 2595 0098 9681      		ldd r25,Z+6
 2596 009a 6981      		ldd r22,Y+1
 2597               	.LVL95:
 2598 009c 6B50      		subi r22,lo8(-(-11))
 2599               	.LVL96:
 2600 009e 0E94 0000 		call getFifo.9873
 2601               	.LVL97:
 2602               	.LSM418:
 2603 00a2 CE01      		movw r24,r28
 2604 00a4 0496      		adiw r24,4
 2605 00a6 62E0      		ldi r22,lo8(2)
 2606 00a8 0E94 0000 		call getFifo.9873
 2607               	.LSM419:
 2608 00ac 8C81      		ldd r24,Y+4
 2609 00ae 8D52      		subi r24,lo8(-(-45))
 2610 00b0 F801      		movw r30,r16
 2611 00b2 8483      		std Z+4,r24
 2612               	.LVL98:
 2613               	.L183:
 2614               	/* epilogue start */
 2615               	.LSM420:
 2616 00b4 0F90      		pop __tmp_reg__
 2617 00b6 0F90      		pop __tmp_reg__
 2618 00b8 0F90      		pop __tmp_reg__
 2619 00ba 0F90      		pop __tmp_reg__
 2620 00bc 0F90      		pop __tmp_reg__
 2621 00be CF91      		pop r28
 2622 00c0 DF91      		pop r29
 2623 00c2 FF91      		pop r31
 2624 00c4 EF91      		pop r30
 2625 00c6 BF91      		pop r27
 2626 00c8 AF91      		pop r26
 2627 00ca 9F91      		pop r25
 2628 00cc 8F91      		pop r24
 2629 00ce 7F91      		pop r23
 2630 00d0 6F91      		pop r22
 2631 00d2 5F91      		pop r21
 2632 00d4 4F91      		pop r20
 2633 00d6 3F91      		pop r19
 2634 00d8 2F91      		pop r18
 2635 00da 1F91      		pop r17
 2636 00dc 0F91      		pop r16
 2637 00de 0F90      		pop r0
 2638 00e0 0BBE      		out 91-32,r0
 2639 00e2 0F90      		pop r0
 2640 00e4 0FBE      		out __SREG__,r0
 2641 00e6 0F90      		pop r0
 2642 00e8 1F90      		pop __zero_reg__
 2643 00ea 1895      		reti
 2644               	.LFE186:
 2646               		.section	.bss.result_local.8352,"aw",@nobits
 2649               	result_local.8352:
 2650 0000 0000      		.skip 2,0
 2651               		.section	.bss.isNewValue.8353,"aw",@nobits
 2654               	isNewValue.8353:
 2655 0000 00        		.skip 1,0
 2656               		.section	.data.uart0.9317,"aw",@progbits
 2659               	uart0.9317:
 2660 0000 0000 00   		.skip 3,0
 2661 0003 03        		.byte	3
 2662 0004 0000 0000 		.skip 4,0
 2663 0008 0000      		.word	gs(write.9314)
 2664 000a 0000      		.word	gs(read.9316)
 2665 000c 0000      		.word	0
 2666               		.section	.data.rf_mode.9880,"aw",@progbits
 2669               	rf_mode.9880:
 2670 0000 01        		.byte	1
 2671               		.section	.data.panId.9878,"aw",@progbits
 2674               	panId.9878:
 2675 0000 B531      		.word	12725
 2676               		.section	.data.shortAddress.9877,"aw",@progbits
 2679               	shortAddress.9877:
 2680 0000 7979      		.word	31097
 2681               		.section	.bss.txSeqNumber.9876,"aw",@nobits
 2684               	txSeqNumber.9876:
 2685 0000 00        		.skip 1,0
 2686               		.section	.bss.buffer.9879,"aw",@nobits
 2689               	buffer.9879:
 2690 0000 0000      		.skip 2,0
 2691               		.section	.bss.rf_power.9881,"aw",@nobits
 2694               	rf_power.9881:
 2695 0000 00        		.skip 1,0
 2696               		.section	.bss.timerInterruptCount.8850,"aw",@nobits
 2699               	timerInterruptCount.8850:
 2700 0000 0000 0000 		.skip 4,0
 2701               		.section	.bss.receivedMsg.1647,"aw",@nobits
 2704               	receivedMsg.1647:
 2705 0000 0000 0000 		.skip 7,0
 2705      0000 00
 2706               		.section	.bss.txBuffer.1648,"aw",@nobits
 2709               	txBuffer.1648:
 2710 0000 0000 0000 		.skip 115,0
 2710      0000 0000 
 2710      0000 0000 
 2710      0000 0000 
 2710      0000 0000 
 2711               		.section	.bss.i.1649,"aw",@nobits
 2714               	i.1649:
 2715 0000 00        		.skip 1,0
 2716               		.section	.bss.j.1650,"aw",@nobits
 2719               	j.1650:
 2720 0000 00        		.skip 1,0
 2721               		.section	.bss.tempresult.1651,"aw",@nobits
 2724               	tempresult.1651:
 2725 0000 0000 0000 		.skip 4,0
 2726               		.section	.bss.Bdata.1652,"aw",@nobits
 2729               	Bdata.1652:
 2730 0000 0000 0000 		.skip 25,0
 2730      0000 0000 
 2730      0000 0000 
 2730      0000 0000 
 2730      0000 0000 
 2731               		.section	.bss.adcValue.1653,"aw",@nobits
 2734               	adcValue.1653:
 2735 0000 0000      		.skip 2,0
 2928               	.Letext0:
DEFINED SYMBOLS
                            *ABS*:00000000 NAP348_Glove_v1_0.c
C:\Users\gavin\AppData\Local\Temp/ccU9r58y.s:2      *ABS*:0000003f __SREG__
C:\Users\gavin\AppData\Local\Temp/ccU9r58y.s:3      *ABS*:0000003e __SP_H__
C:\Users\gavin\AppData\Local\Temp/ccU9r58y.s:4      *ABS*:0000003d __SP_L__
C:\Users\gavin\AppData\Local\Temp/ccU9r58y.s:5      *ABS*:00000034 __CCP__
C:\Users\gavin\AppData\Local\Temp/ccU9r58y.s:6      *ABS*:00000000 __tmp_reg__
C:\Users\gavin\AppData\Local\Temp/ccU9r58y.s:7      *ABS*:00000001 __zero_reg__
C:\Users\gavin\AppData\Local\Temp/ccU9r58y.s:18     .text.adxl345_spi_init:00000000 adxl345_spi_init
C:\Users\gavin\AppData\Local\Temp/ccU9r58y.s:54     .text.getDOUT.1527:00000000 getDOUT.1527
C:\Users\gavin\AppData\Local\Temp/ccU9r58y.s:74     .text.adxl345_spi_write.1523:00000000 adxl345_spi_write.1523
C:\Users\gavin\AppData\Local\Temp/ccU9r58y.s:160    .text.adxl345_spi_read.1525:00000000 adxl345_spi_read.1525
C:\Users\gavin\AppData\Local\Temp/ccU9r58y.s:254    .text.adc_init.1365:00000000 adc_init.1365
C:\Users\gavin\AppData\Local\Temp/ccU9r58y.s:2654   .bss.isNewValue.8353:00000000 isNewValue.8353
C:\Users\gavin\AppData\Local\Temp/ccU9r58y.s:309    .text.adc_singleConversion.1374:00000000 adc_singleConversion.1374
C:\Users\gavin\AppData\Local\Temp/ccU9r58y.s:2649   .bss.result_local.8352:00000000 result_local.8352
C:\Users\gavin\AppData\Local\Temp/ccU9r58y.s:357    .text.circBufferCmp.6770:00000000 circBufferCmp.6770
C:\Users\gavin\AppData\Local\Temp/ccU9r58y.s:423    .text.__vector_21:00000000 __vector_21
C:\Users\gavin\AppData\Local\Temp/ccU9r58y.s:472    .text.__vector_15:00000000 __vector_15
C:\Users\gavin\AppData\Local\Temp/ccU9r58y.s:2699   .bss.timerInterruptCount.8850:00000000 timerInterruptCount.8850
C:\Users\gavin\AppData\Local\Temp/ccU9r58y.s:512    .text.__vector_9:00000000 __vector_9
C:\Users\gavin\AppData\Local\Temp/ccU9r58y.s:543    .text.write.9314:00000000 write.9314
C:\Users\gavin\AppData\Local\Temp/ccU9r58y.s:568    .text.read.9316:00000000 read.9316
C:\Users\gavin\AppData\Local\Temp/ccU9r58y.s:593    .text.getByte.9860:00000000 getByte.9860
C:\Users\gavin\AppData\Local\Temp/ccU9r58y.s:631    .text.sendByte.9862:00000000 sendByte.9862
C:\Users\gavin\AppData\Local\Temp/ccU9r58y.s:669    .text.rf_setMode.1476:00000000 rf_setMode.1476
C:\Users\gavin\AppData\Local\Temp/ccU9r58y.s:2669   .data.rf_mode.9880:00000000 rf_mode.9880
C:\Users\gavin\AppData\Local\Temp/ccU9r58y.s:790    .text.setRegister.9865:00000000 setRegister.9865
C:\Users\gavin\AppData\Local\Temp/ccU9r58y.s:855    .text.sendRamAddress.9867:00000000 sendRamAddress.9867
C:\Users\gavin\AppData\Local\Temp/ccU9r58y.s:902    .text.writeFifo.9870:00000000 writeFifo.9870
C:\Users\gavin\AppData\Local\Temp/ccU9r58y.s:973    .text.main:00000000 main
C:\Users\gavin\AppData\Local\Temp/ccU9r58y.s:2694   .bss.rf_power.9881:00000000 rf_power.9881
C:\Users\gavin\AppData\Local\Temp/ccU9r58y.s:2684   .bss.txSeqNumber.9876:00000000 txSeqNumber.9876
C:\Users\gavin\AppData\Local\Temp/ccU9r58y.s:2704   .bss.receivedMsg.1647:00000000 receivedMsg.1647
C:\Users\gavin\AppData\Local\Temp/ccU9r58y.s:2689   .bss.buffer.9879:00000000 buffer.9879
C:\Users\gavin\AppData\Local\Temp/ccU9r58y.s:2659   .data.uart0.9317:00000000 uart0.9317
C:\Users\gavin\AppData\Local\Temp/ccU9r58y.s:2719   .bss.j.1650:00000000 j.1650
C:\Users\gavin\AppData\Local\Temp/ccU9r58y.s:2729   .bss.Bdata.1652:00000000 Bdata.1652
C:\Users\gavin\AppData\Local\Temp/ccU9r58y.s:2709   .bss.txBuffer.1648:00000000 txBuffer.1648
C:\Users\gavin\AppData\Local\Temp/ccU9r58y.s:2714   .bss.i.1649:00000000 i.1649
C:\Users\gavin\AppData\Local\Temp/ccU9r58y.s:2724   .bss.tempresult.1651:00000000 tempresult.1651
C:\Users\gavin\AppData\Local\Temp/ccU9r58y.s:2674   .data.panId.9878:00000000 panId.9878
C:\Users\gavin\AppData\Local\Temp/ccU9r58y.s:2679   .data.shortAddress.9877:00000000 shortAddress.9877
C:\Users\gavin\AppData\Local\Temp/ccU9r58y.s:2734   .bss.adcValue.1653:00000000 adcValue.1653
C:\Users\gavin\AppData\Local\Temp/ccU9r58y.s:2371   .text.getFifo.9873:00000000 getFifo.9873
C:\Users\gavin\AppData\Local\Temp/ccU9r58y.s:2437   .text.discardFifo.9875:00000000 discardFifo.9875
C:\Users\gavin\AppData\Local\Temp/ccU9r58y.s:2504   .text.__vector_5:00000000 __vector_5

UNDEFINED SYMBOLS
__prologue_saves__
__iob
fputc
__floatsisf
__mulsf3
snprintf
__do_copy_data
__do_clear_bss
