
NAP348_Glove_v1_0.elf:     file format elf32-avr

Sections:
Idx Name          Size      VMA       LMA       File off  Algn
  0 .data         00000016  00800100  000025f4  00002688  2**0
                  CONTENTS, ALLOC, LOAD, DATA
  1 .text         000025f4  00000000  00000000  00000094  2**1
                  CONTENTS, ALLOC, LOAD, READONLY, CODE
  2 .bss          000000af  00800116  00800116  0000269e  2**0
                  ALLOC
  3 .debug_aranges 000000d8  00000000  00000000  0000269e  2**0
                  CONTENTS, READONLY, DEBUGGING
  4 .debug_pubnames 00000079  00000000  00000000  00002776  2**0
                  CONTENTS, READONLY, DEBUGGING
  5 .debug_info   00001538  00000000  00000000  000027ef  2**0
                  CONTENTS, READONLY, DEBUGGING
  6 .debug_abbrev 00000458  00000000  00000000  00003d27  2**0
                  CONTENTS, READONLY, DEBUGGING
  7 .debug_line   0000121b  00000000  00000000  0000417f  2**0
                  CONTENTS, READONLY, DEBUGGING
  8 .debug_frame  00000190  00000000  00000000  0000539c  2**2
                  CONTENTS, READONLY, DEBUGGING
  9 .debug_str    00000545  00000000  00000000  0000552c  2**0
                  CONTENTS, READONLY, DEBUGGING
 10 .debug_loc    00000486  00000000  00000000  00005a71  2**0
                  CONTENTS, READONLY, DEBUGGING
 11 .debug_ranges 00000208  00000000  00000000  00005ef7  2**0
                  CONTENTS, READONLY, DEBUGGING

Disassembly of section .text:

00000000 <__vectors>:
 *
 * @return @c 0 if the strings are the same, @c 1 if the string pointed to by
 *     @a a is greater than the string pointed to by @a b, and @c -1 otherwise.
 **/
static int circBufferCmp(const void *a, const void *b)
{
       0:	f1 c0       	rjmp	.+482    	; 0x1e4 <__ctors_end>
       2:	00 00       	nop
       4:	0e c1       	rjmp	.+540    	; 0x222 <__bad_interrupt>
       6:	00 00       	nop
       8:	0c c1       	rjmp	.+536    	; 0x222 <__bad_interrupt>
       a:	00 00       	nop
       c:	0a c1       	rjmp	.+532    	; 0x222 <__bad_interrupt>
       e:	00 00       	nop
      10:	08 c1       	rjmp	.+528    	; 0x222 <__bad_interrupt>
      12:	00 00       	nop
      14:	0c 94 1c 10 	jmp	0x2038	; 0x2038 <__vector_5>
      18:	04 c1       	rjmp	.+520    	; 0x222 <__bad_interrupt>
      1a:	00 00       	nop
      1c:	02 c1       	rjmp	.+516    	; 0x222 <__bad_interrupt>
      1e:	00 00       	nop
      20:	00 c1       	rjmp	.+512    	; 0x222 <__bad_interrupt>
      22:	00 00       	nop
      24:	0c 94 10 0b 	jmp	0x1620	; 0x1620 <__vector_9>
      28:	fc c0       	rjmp	.+504    	; 0x222 <__bad_interrupt>
      2a:	00 00       	nop
      2c:	fa c0       	rjmp	.+500    	; 0x222 <__bad_interrupt>
      2e:	00 00       	nop
      30:	f8 c0       	rjmp	.+496    	; 0x222 <__bad_interrupt>
      32:	00 00       	nop
      34:	f6 c0       	rjmp	.+492    	; 0x222 <__bad_interrupt>
      36:	00 00       	nop
      38:	0c 94 6a 0a 	jmp	0x14d4	; 0x14d4 <__vector_14>
      3c:	0c 94 f4 0a 	jmp	0x15e8	; 0x15e8 <__vector_15>
      40:	0c 94 74 0a 	jmp	0x14e8	; 0x14e8 <__vector_16>
      44:	ee c0       	rjmp	.+476    	; 0x222 <__bad_interrupt>
      46:	00 00       	nop
      48:	ec c0       	rjmp	.+472    	; 0x222 <__bad_interrupt>
      4a:	00 00       	nop
      4c:	ea c0       	rjmp	.+468    	; 0x222 <__bad_interrupt>
      4e:	00 00       	nop
      50:	e8 c0       	rjmp	.+464    	; 0x222 <__bad_interrupt>
      52:	00 00       	nop
      54:	0c 94 d3 0a 	jmp	0x15a6	; 0x15a6 <__vector_21>
      58:	e4 c0       	rjmp	.+456    	; 0x222 <__bad_interrupt>
      5a:	00 00       	nop
      5c:	e2 c0       	rjmp	.+452    	; 0x222 <__bad_interrupt>
      5e:	00 00       	nop
      60:	e0 c0       	rjmp	.+448    	; 0x222 <__bad_interrupt>
      62:	00 00       	nop
      64:	de c0       	rjmp	.+444    	; 0x222 <__bad_interrupt>
      66:	00 00       	nop
      68:	dc c0       	rjmp	.+440    	; 0x222 <__bad_interrupt>
      6a:	00 00       	nop
      6c:	da c0       	rjmp	.+436    	; 0x222 <__bad_interrupt>
      6e:	00 00       	nop
      70:	d8 c0       	rjmp	.+432    	; 0x222 <__bad_interrupt>
      72:	00 00       	nop
      74:	d6 c0       	rjmp	.+428    	; 0x222 <__bad_interrupt>
      76:	00 00       	nop
      78:	d4 c0       	rjmp	.+424    	; 0x222 <__bad_interrupt>
      7a:	00 00       	nop
      7c:	d2 c0       	rjmp	.+420    	; 0x222 <__bad_interrupt>
      7e:	00 00       	nop
      80:	d0 c0       	rjmp	.+416    	; 0x222 <__bad_interrupt>
      82:	00 00       	nop
      84:	ce c0       	rjmp	.+412    	; 0x222 <__bad_interrupt>
      86:	00 00       	nop
      88:	cc c0       	rjmp	.+408    	; 0x222 <__bad_interrupt>
      8a:	00 00       	nop

0000008c <__c.1790>:
      8c:	6e 61 6e 00                                         nan.

00000090 <__c.1788>:
      90:	69 6e 66 00                                         inf.

00000094 <__c.2085>:
      94:	63 64 69 6e 6f 70 73 75 78 58 5b 65 66 67 45 46     cdinopsuxX[efgEF
      a4:	47 00                                               G.

000000a6 <pstr_an>:
      a6:	61 6e 00                                            an.

000000a9 <pstr_nfinity>:
      a9:	6e 66 69 6e 69 74 79 00                             nfinity.

000000b1 <pwr_m10>:
      b1:	cd cc cc 3d 0a d7 23 3c 17 b7 d1 38 77 cc 2b 32     ...=..#<...8w.+2
      c1:	95 95 e6 24 1f b1 4f 0a                             ...$..O.

000000c9 <pwr_p10>:
      c9:	00 00 20 41 00 00 c8 42 00 40 1c 46 20 bc be 4c     .. A...B.@.F ..L
      d9:	ca 1b 0e 5a ae c5 9d 74                             ...Z...t

000000e1 <__c.1679>:
      e1:	25 75 2e 25 2e 32 75 2c 00 00 40 7a 10 f3 5a 00     %u.%.2u,..@z..Z.
      f1:	a0 72 4e 18 09 00 10 a5 d4 e8 00 00 e8 76 48 17     .rN..........vH.
     101:	00 00 e4 0b 54 02 00 00 ca 9a 3b 00 00 00 e1 f5     ....T.....;.....
     111:	05 00 00 80 96 98 00 00 00 40 42 0f 00 00 00 a0     .........@B.....
     121:	86 01 00 00 00 10 27 00 00 00 00 e8 03 00 00 00     ......'.........
     131:	00 64 00 00 00 00 00 0a 00 00 00 00 00 01 00 00     .d..............
     141:	00 00 00 2c 76 d8 88 dc 67 4f 08 23 df c1 df ae     ...,v...gO.#....
     151:	59 e1 b1 b7 96 e5 e3 e4 53 c6 3a e6 51 99 76 96     Y.......S.:.Q.v.
     161:	e8 e6 c2 84 26 eb 89 8c 9b 62 ed 40 7c 6f fc ef     ....&....b.@|o..
     171:	bc 9c 9f 40 f2 ba a5 6f a5 f4 90 05 5a 2a f7 5c     ...@...o....Z*.\
     181:	93 6b 6c f9 67 6d c1 1b fc e0 e4 0d 47 fe f5 20     .kl.gm......G.. 
     191:	e6 b5 00 d0 ed 90 2e 03 00 94 35 77 05 00 80 84     ..........5w....
     1a1:	1e 08 00 00 20 4e 0a 00 00 00 c8 0c 33 33 33 33     .... N......3333
     1b1:	0f 98 6e 12 83 11 41 ef 8d 21 14 89 3b e6 55 16     ..n...A..!..;.U.
     1c1:	cf fe e6 db 18 d1 84 4b 38 1b f7 7c 1d 90 1d a4     .......K8..|....
     1d1:	bb e4 24 20 32 84 72 5e 22 81 00 c9 f1 24 ec a1     ..$ 2.r^"....$..
     1e1:	e5 3d 27                                            .='

000001e4 <__ctors_end>:
     1e4:	11 24       	eor	r1, r1
     1e6:	1f be       	out	0x3f, r1	; 63
     1e8:	cf ef       	ldi	r28, 0xFF	; 255
     1ea:	d0 e1       	ldi	r29, 0x10	; 16
     1ec:	de bf       	out	0x3e, r29	; 62
     1ee:	cd bf       	out	0x3d, r28	; 61

000001f0 <__do_copy_data>:
     1f0:	11 e0       	ldi	r17, 0x01	; 1
     1f2:	a0 e0       	ldi	r26, 0x00	; 0
     1f4:	b1 e0       	ldi	r27, 0x01	; 1
     1f6:	e4 ef       	ldi	r30, 0xF4	; 244
     1f8:	f5 e2       	ldi	r31, 0x25	; 37
     1fa:	00 e0       	ldi	r16, 0x00	; 0
     1fc:	0b bf       	out	0x3b, r16	; 59
     1fe:	02 c0       	rjmp	.+4      	; 0x204 <__do_copy_data+0x14>
     200:	07 90       	elpm	r0, Z+
     202:	0d 92       	st	X+, r0
     204:	a6 31       	cpi	r26, 0x16	; 22
     206:	b1 07       	cpc	r27, r17
     208:	d9 f7       	brne	.-10     	; 0x200 <__do_copy_data+0x10>

0000020a <__do_clear_bss>:
     20a:	11 e0       	ldi	r17, 0x01	; 1
     20c:	a6 e1       	ldi	r26, 0x16	; 22
     20e:	b1 e0       	ldi	r27, 0x01	; 1
     210:	01 c0       	rjmp	.+2      	; 0x214 <.do_clear_bss_start>

00000212 <.do_clear_bss_loop>:
     212:	1d 92       	st	X+, r1

00000214 <.do_clear_bss_start>:
     214:	a5 3c       	cpi	r26, 0xC5	; 197
     216:	b1 07       	cpc	r27, r17
     218:	e1 f7       	brne	.-8      	; 0x212 <.do_clear_bss_loop>
     21a:	0e 94 b0 0b 	call	0x1760	; 0x1760 <main>
     21e:	0c 94 f8 12 	jmp	0x25f0	; 0x25f0 <_exit>

00000222 <__bad_interrupt>:
     222:	ee ce       	rjmp	.-548    	; 0x0 <__vectors>

00000224 <vfprintf>:
     224:	2f 92       	push	r2
     226:	3f 92       	push	r3
     228:	4f 92       	push	r4
     22a:	5f 92       	push	r5
     22c:	6f 92       	push	r6
     22e:	7f 92       	push	r7
     230:	8f 92       	push	r8
     232:	9f 92       	push	r9
     234:	af 92       	push	r10
     236:	bf 92       	push	r11
     238:	cf 92       	push	r12
     23a:	df 92       	push	r13
     23c:	ef 92       	push	r14
     23e:	ff 92       	push	r15
     240:	0f 93       	push	r16
     242:	1f 93       	push	r17
     244:	df 93       	push	r29
     246:	cf 93       	push	r28
     248:	cd b7       	in	r28, 0x3d	; 61
     24a:	de b7       	in	r29, 0x3e	; 62
     24c:	61 97       	sbiw	r28, 0x11	; 17
     24e:	0f b6       	in	r0, 0x3f	; 63
     250:	f8 94       	cli
     252:	de bf       	out	0x3e, r29	; 62
     254:	0f be       	out	0x3f, r0	; 63
     256:	cd bf       	out	0x3d, r28	; 61
     258:	3c 01       	movw	r6, r24
     25a:	7f 87       	std	Y+15, r23	; 0x0f
     25c:	6e 87       	std	Y+14, r22	; 0x0e
     25e:	6a 01       	movw	r12, r20
     260:	fc 01       	movw	r30, r24
     262:	17 82       	std	Z+7, r1	; 0x07
     264:	16 82       	std	Z+6, r1	; 0x06
     266:	83 81       	ldd	r24, Z+3	; 0x03
     268:	81 fd       	sbrc	r24, 1
     26a:	03 c0       	rjmp	.+6      	; 0x272 <vfprintf+0x4e>
     26c:	6f ef       	ldi	r22, 0xFF	; 255
     26e:	7f ef       	ldi	r23, 0xFF	; 255
     270:	6f c3       	rjmp	.+1758   	; 0x950 <vfprintf+0x72c>
     272:	9e 01       	movw	r18, r28
     274:	2f 5f       	subi	r18, 0xFF	; 255
     276:	3f 4f       	sbci	r19, 0xFF	; 255
     278:	39 8b       	std	Y+17, r19	; 0x11
     27a:	28 8b       	std	Y+16, r18	; 0x10
     27c:	f3 01       	movw	r30, r6
     27e:	23 81       	ldd	r18, Z+3	; 0x03
     280:	ee 85       	ldd	r30, Y+14	; 0x0e
     282:	ff 85       	ldd	r31, Y+15	; 0x0f
     284:	23 fd       	sbrc	r18, 3
     286:	85 91       	lpm	r24, Z+
     288:	23 ff       	sbrs	r18, 3
     28a:	81 91       	ld	r24, Z+
     28c:	ff 87       	std	Y+15, r31	; 0x0f
     28e:	ee 87       	std	Y+14, r30	; 0x0e
     290:	88 23       	and	r24, r24
     292:	09 f4       	brne	.+2      	; 0x296 <vfprintf+0x72>
     294:	5a c3       	rjmp	.+1716   	; 0x94a <vfprintf+0x726>
     296:	85 32       	cpi	r24, 0x25	; 37
     298:	51 f4       	brne	.+20     	; 0x2ae <vfprintf+0x8a>
     29a:	ee 85       	ldd	r30, Y+14	; 0x0e
     29c:	ff 85       	ldd	r31, Y+15	; 0x0f
     29e:	23 fd       	sbrc	r18, 3
     2a0:	85 91       	lpm	r24, Z+
     2a2:	23 ff       	sbrs	r18, 3
     2a4:	81 91       	ld	r24, Z+
     2a6:	ff 87       	std	Y+15, r31	; 0x0f
     2a8:	ee 87       	std	Y+14, r30	; 0x0e
     2aa:	85 32       	cpi	r24, 0x25	; 37
     2ac:	29 f4       	brne	.+10     	; 0x2b8 <vfprintf+0x94>
     2ae:	90 e0       	ldi	r25, 0x00	; 0
     2b0:	b3 01       	movw	r22, r6
     2b2:	0e 94 f0 11 	call	0x23e0	; 0x23e0 <fputc>
     2b6:	e2 cf       	rjmp	.-60     	; 0x27c <vfprintf+0x58>
     2b8:	98 2f       	mov	r25, r24
     2ba:	10 e0       	ldi	r17, 0x00	; 0
     2bc:	88 24       	eor	r8, r8
     2be:	99 24       	eor	r9, r9
     2c0:	10 32       	cpi	r17, 0x20	; 32
     2c2:	b0 f4       	brcc	.+44     	; 0x2f0 <vfprintf+0xcc>
     2c4:	9b 32       	cpi	r25, 0x2B	; 43
     2c6:	69 f0       	breq	.+26     	; 0x2e2 <vfprintf+0xbe>
     2c8:	9c 32       	cpi	r25, 0x2C	; 44
     2ca:	28 f4       	brcc	.+10     	; 0x2d6 <vfprintf+0xb2>
     2cc:	90 32       	cpi	r25, 0x20	; 32
     2ce:	51 f0       	breq	.+20     	; 0x2e4 <vfprintf+0xc0>
     2d0:	93 32       	cpi	r25, 0x23	; 35
     2d2:	71 f4       	brne	.+28     	; 0x2f0 <vfprintf+0xcc>
     2d4:	0b c0       	rjmp	.+22     	; 0x2ec <vfprintf+0xc8>
     2d6:	9d 32       	cpi	r25, 0x2D	; 45
     2d8:	39 f0       	breq	.+14     	; 0x2e8 <vfprintf+0xc4>
     2da:	90 33       	cpi	r25, 0x30	; 48
     2dc:	49 f4       	brne	.+18     	; 0x2f0 <vfprintf+0xcc>
     2de:	11 60       	ori	r17, 0x01	; 1
     2e0:	28 c0       	rjmp	.+80     	; 0x332 <vfprintf+0x10e>
     2e2:	12 60       	ori	r17, 0x02	; 2
     2e4:	14 60       	ori	r17, 0x04	; 4
     2e6:	25 c0       	rjmp	.+74     	; 0x332 <vfprintf+0x10e>
     2e8:	18 60       	ori	r17, 0x08	; 8
     2ea:	23 c0       	rjmp	.+70     	; 0x332 <vfprintf+0x10e>
     2ec:	10 61       	ori	r17, 0x10	; 16
     2ee:	21 c0       	rjmp	.+66     	; 0x332 <vfprintf+0x10e>
     2f0:	17 fd       	sbrc	r17, 7
     2f2:	2a c0       	rjmp	.+84     	; 0x348 <vfprintf+0x124>
     2f4:	89 2f       	mov	r24, r25
     2f6:	80 53       	subi	r24, 0x30	; 48
     2f8:	8a 30       	cpi	r24, 0x0A	; 10
     2fa:	78 f4       	brcc	.+30     	; 0x31a <vfprintf+0xf6>
     2fc:	16 ff       	sbrs	r17, 6
     2fe:	06 c0       	rjmp	.+12     	; 0x30c <vfprintf+0xe8>
     300:	fa e0       	ldi	r31, 0x0A	; 10
     302:	9f 9e       	mul	r9, r31
     304:	90 2c       	mov	r9, r0
     306:	11 24       	eor	r1, r1
     308:	98 0e       	add	r9, r24
     30a:	13 c0       	rjmp	.+38     	; 0x332 <vfprintf+0x10e>
     30c:	3a e0       	ldi	r19, 0x0A	; 10
     30e:	83 9e       	mul	r8, r19
     310:	80 2c       	mov	r8, r0
     312:	11 24       	eor	r1, r1
     314:	88 0e       	add	r8, r24
     316:	10 62       	ori	r17, 0x20	; 32
     318:	0c c0       	rjmp	.+24     	; 0x332 <vfprintf+0x10e>
     31a:	9e 32       	cpi	r25, 0x2E	; 46
     31c:	21 f4       	brne	.+8      	; 0x326 <vfprintf+0x102>
     31e:	16 fd       	sbrc	r17, 6
     320:	14 c3       	rjmp	.+1576   	; 0x94a <vfprintf+0x726>
     322:	10 64       	ori	r17, 0x40	; 64
     324:	06 c0       	rjmp	.+12     	; 0x332 <vfprintf+0x10e>
     326:	9c 36       	cpi	r25, 0x6C	; 108
     328:	11 f4       	brne	.+4      	; 0x32e <vfprintf+0x10a>
     32a:	10 68       	ori	r17, 0x80	; 128
     32c:	02 c0       	rjmp	.+4      	; 0x332 <vfprintf+0x10e>
     32e:	98 36       	cpi	r25, 0x68	; 104
     330:	59 f4       	brne	.+22     	; 0x348 <vfprintf+0x124>
     332:	ee 85       	ldd	r30, Y+14	; 0x0e
     334:	ff 85       	ldd	r31, Y+15	; 0x0f
     336:	23 fd       	sbrc	r18, 3
     338:	95 91       	lpm	r25, Z+
     33a:	23 ff       	sbrs	r18, 3
     33c:	91 91       	ld	r25, Z+
     33e:	ff 87       	std	Y+15, r31	; 0x0f
     340:	ee 87       	std	Y+14, r30	; 0x0e
     342:	99 23       	and	r25, r25
     344:	09 f0       	breq	.+2      	; 0x348 <vfprintf+0x124>
     346:	bc cf       	rjmp	.-136    	; 0x2c0 <vfprintf+0x9c>
     348:	89 2f       	mov	r24, r25
     34a:	85 54       	subi	r24, 0x45	; 69
     34c:	83 30       	cpi	r24, 0x03	; 3
     34e:	20 f4       	brcc	.+8      	; 0x358 <vfprintf+0x134>
     350:	81 2f       	mov	r24, r17
     352:	80 61       	ori	r24, 0x10	; 16
     354:	90 5e       	subi	r25, 0xE0	; 224
     356:	07 c0       	rjmp	.+14     	; 0x366 <vfprintf+0x142>
     358:	89 2f       	mov	r24, r25
     35a:	85 56       	subi	r24, 0x65	; 101
     35c:	83 30       	cpi	r24, 0x03	; 3
     35e:	08 f0       	brcs	.+2      	; 0x362 <vfprintf+0x13e>
     360:	9f c1       	rjmp	.+830    	; 0x6a0 <vfprintf+0x47c>
     362:	81 2f       	mov	r24, r17
     364:	8f 7e       	andi	r24, 0xEF	; 239
     366:	86 fd       	sbrc	r24, 6
     368:	02 c0       	rjmp	.+4      	; 0x36e <vfprintf+0x14a>
     36a:	76 e0       	ldi	r23, 0x06	; 6
     36c:	97 2e       	mov	r9, r23
     36e:	6f e3       	ldi	r22, 0x3F	; 63
     370:	f6 2e       	mov	r15, r22
     372:	f8 22       	and	r15, r24
     374:	95 36       	cpi	r25, 0x65	; 101
     376:	19 f4       	brne	.+6      	; 0x37e <vfprintf+0x15a>
     378:	f0 e4       	ldi	r31, 0x40	; 64
     37a:	ff 2a       	or	r15, r31
     37c:	07 c0       	rjmp	.+14     	; 0x38c <vfprintf+0x168>
     37e:	96 36       	cpi	r25, 0x66	; 102
     380:	19 f4       	brne	.+6      	; 0x388 <vfprintf+0x164>
     382:	20 e8       	ldi	r18, 0x80	; 128
     384:	f2 2a       	or	r15, r18
     386:	02 c0       	rjmp	.+4      	; 0x38c <vfprintf+0x168>
     388:	91 10       	cpse	r9, r1
     38a:	9a 94       	dec	r9
     38c:	f7 fe       	sbrs	r15, 7
     38e:	0a c0       	rjmp	.+20     	; 0x3a4 <vfprintf+0x180>
     390:	3b e3       	ldi	r19, 0x3B	; 59
     392:	39 15       	cp	r19, r9
     394:	18 f4       	brcc	.+6      	; 0x39c <vfprintf+0x178>
     396:	5c e3       	ldi	r21, 0x3C	; 60
     398:	b5 2e       	mov	r11, r21
     39a:	02 c0       	rjmp	.+4      	; 0x3a0 <vfprintf+0x17c>
     39c:	b9 2c       	mov	r11, r9
     39e:	b3 94       	inc	r11
     3a0:	27 e0       	ldi	r18, 0x07	; 7
     3a2:	09 c0       	rjmp	.+18     	; 0x3b6 <vfprintf+0x192>
     3a4:	47 e0       	ldi	r20, 0x07	; 7
     3a6:	49 15       	cp	r20, r9
     3a8:	20 f4       	brcc	.+8      	; 0x3b2 <vfprintf+0x18e>
     3aa:	bb 24       	eor	r11, r11
     3ac:	47 e0       	ldi	r20, 0x07	; 7
     3ae:	94 2e       	mov	r9, r20
     3b0:	f7 cf       	rjmp	.-18     	; 0x3a0 <vfprintf+0x17c>
     3b2:	29 2d       	mov	r18, r9
     3b4:	bb 24       	eor	r11, r11
     3b6:	c6 01       	movw	r24, r12
     3b8:	04 96       	adiw	r24, 0x04	; 4
     3ba:	9d 87       	std	Y+13, r25	; 0x0d
     3bc:	8c 87       	std	Y+12, r24	; 0x0c
     3be:	f6 01       	movw	r30, r12
     3c0:	60 81       	ld	r22, Z
     3c2:	71 81       	ldd	r23, Z+1	; 0x01
     3c4:	82 81       	ldd	r24, Z+2	; 0x02
     3c6:	93 81       	ldd	r25, Z+3	; 0x03
     3c8:	ae 01       	movw	r20, r28
     3ca:	4f 5f       	subi	r20, 0xFF	; 255
     3cc:	5f 4f       	sbci	r21, 0xFF	; 255
     3ce:	0b 2d       	mov	r16, r11
     3d0:	0e 94 a5 10 	call	0x214a	; 0x214a <__ftoa_engine>
     3d4:	6c 01       	movw	r12, r24
     3d6:	09 81       	ldd	r16, Y+1	; 0x01
     3d8:	20 2e       	mov	r2, r16
     3da:	33 24       	eor	r3, r3
     3dc:	00 ff       	sbrs	r16, 0
     3de:	04 c0       	rjmp	.+8      	; 0x3e8 <vfprintf+0x1c4>
     3e0:	03 fd       	sbrc	r16, 3
     3e2:	02 c0       	rjmp	.+4      	; 0x3e8 <vfprintf+0x1c4>
     3e4:	1d e2       	ldi	r17, 0x2D	; 45
     3e6:	09 c0       	rjmp	.+18     	; 0x3fa <vfprintf+0x1d6>
     3e8:	f1 fe       	sbrs	r15, 1
     3ea:	02 c0       	rjmp	.+4      	; 0x3f0 <vfprintf+0x1cc>
     3ec:	1b e2       	ldi	r17, 0x2B	; 43
     3ee:	05 c0       	rjmp	.+10     	; 0x3fa <vfprintf+0x1d6>
     3f0:	f2 fc       	sbrc	r15, 2
     3f2:	02 c0       	rjmp	.+4      	; 0x3f8 <vfprintf+0x1d4>
     3f4:	10 e0       	ldi	r17, 0x00	; 0
     3f6:	01 c0       	rjmp	.+2      	; 0x3fa <vfprintf+0x1d6>
     3f8:	10 e2       	ldi	r17, 0x20	; 32
     3fa:	c1 01       	movw	r24, r2
     3fc:	8c 70       	andi	r24, 0x0C	; 12
     3fe:	90 70       	andi	r25, 0x00	; 0
     400:	89 2b       	or	r24, r25
     402:	b9 f1       	breq	.+110    	; 0x472 <vfprintf+0x24e>
     404:	11 23       	and	r17, r17
     406:	11 f4       	brne	.+4      	; 0x40c <vfprintf+0x1e8>
     408:	83 e0       	ldi	r24, 0x03	; 3
     40a:	01 c0       	rjmp	.+2      	; 0x40e <vfprintf+0x1ea>
     40c:	84 e0       	ldi	r24, 0x04	; 4
     40e:	88 15       	cp	r24, r8
     410:	10 f0       	brcs	.+4      	; 0x416 <vfprintf+0x1f2>
     412:	88 24       	eor	r8, r8
     414:	0a c0       	rjmp	.+20     	; 0x42a <vfprintf+0x206>
     416:	88 1a       	sub	r8, r24
     418:	f3 fc       	sbrc	r15, 3
     41a:	07 c0       	rjmp	.+14     	; 0x42a <vfprintf+0x206>
     41c:	80 e2       	ldi	r24, 0x20	; 32
     41e:	90 e0       	ldi	r25, 0x00	; 0
     420:	b3 01       	movw	r22, r6
     422:	0e 94 f0 11 	call	0x23e0	; 0x23e0 <fputc>
     426:	8a 94       	dec	r8
     428:	c9 f7       	brne	.-14     	; 0x41c <vfprintf+0x1f8>
     42a:	11 23       	and	r17, r17
     42c:	29 f0       	breq	.+10     	; 0x438 <vfprintf+0x214>
     42e:	81 2f       	mov	r24, r17
     430:	90 e0       	ldi	r25, 0x00	; 0
     432:	b3 01       	movw	r22, r6
     434:	0e 94 f0 11 	call	0x23e0	; 0x23e0 <fputc>
     438:	23 fe       	sbrs	r2, 3
     43a:	03 c0       	rjmp	.+6      	; 0x442 <vfprintf+0x21e>
     43c:	0c e8       	ldi	r16, 0x8C	; 140
     43e:	10 e0       	ldi	r17, 0x00	; 0
     440:	0e c0       	rjmp	.+28     	; 0x45e <vfprintf+0x23a>
     442:	00 e9       	ldi	r16, 0x90	; 144
     444:	10 e0       	ldi	r17, 0x00	; 0
     446:	0b c0       	rjmp	.+22     	; 0x45e <vfprintf+0x23a>
     448:	e1 14       	cp	r14, r1
     44a:	f1 04       	cpc	r15, r1
     44c:	09 f0       	breq	.+2      	; 0x450 <vfprintf+0x22c>
     44e:	80 52       	subi	r24, 0x20	; 32
     450:	90 e0       	ldi	r25, 0x00	; 0
     452:	b3 01       	movw	r22, r6
     454:	0e 94 f0 11 	call	0x23e0	; 0x23e0 <fputc>
     458:	0f 5f       	subi	r16, 0xFF	; 255
     45a:	1f 4f       	sbci	r17, 0xFF	; 255
     45c:	05 c0       	rjmp	.+10     	; 0x468 <vfprintf+0x244>
     45e:	ef 2c       	mov	r14, r15
     460:	ff 24       	eor	r15, r15
     462:	f0 e1       	ldi	r31, 0x10	; 16
     464:	ef 22       	and	r14, r31
     466:	ff 24       	eor	r15, r15
     468:	f8 01       	movw	r30, r16
     46a:	84 91       	lpm	r24, Z+
     46c:	88 23       	and	r24, r24
     46e:	61 f7       	brne	.-40     	; 0x448 <vfprintf+0x224>
     470:	14 c1       	rjmp	.+552    	; 0x69a <vfprintf+0x476>
     472:	f7 fe       	sbrs	r15, 7
     474:	12 c0       	rjmp	.+36     	; 0x49a <vfprintf+0x276>
     476:	bc 0c       	add	r11, r12
     478:	24 fe       	sbrs	r2, 4
     47a:	04 c0       	rjmp	.+8      	; 0x484 <vfprintf+0x260>
     47c:	8a 81       	ldd	r24, Y+2	; 0x02
     47e:	81 33       	cpi	r24, 0x31	; 49
     480:	09 f4       	brne	.+2      	; 0x484 <vfprintf+0x260>
     482:	ba 94       	dec	r11
     484:	1b 14       	cp	r1, r11
     486:	1c f0       	brlt	.+6      	; 0x48e <vfprintf+0x26a>
     488:	bb 24       	eor	r11, r11
     48a:	b3 94       	inc	r11
     48c:	2d c0       	rjmp	.+90     	; 0x4e8 <vfprintf+0x2c4>
     48e:	f8 e0       	ldi	r31, 0x08	; 8
     490:	fb 15       	cp	r31, r11
     492:	50 f5       	brcc	.+84     	; 0x4e8 <vfprintf+0x2c4>
     494:	38 e0       	ldi	r19, 0x08	; 8
     496:	b3 2e       	mov	r11, r19
     498:	27 c0       	rjmp	.+78     	; 0x4e8 <vfprintf+0x2c4>
     49a:	f6 fc       	sbrc	r15, 6
     49c:	25 c0       	rjmp	.+74     	; 0x4e8 <vfprintf+0x2c4>
     49e:	89 2d       	mov	r24, r9
     4a0:	90 e0       	ldi	r25, 0x00	; 0
     4a2:	8c 15       	cp	r24, r12
     4a4:	9d 05       	cpc	r25, r13
     4a6:	4c f0       	brlt	.+18     	; 0x4ba <vfprintf+0x296>
     4a8:	2c ef       	ldi	r18, 0xFC	; 252
     4aa:	c2 16       	cp	r12, r18
     4ac:	2f ef       	ldi	r18, 0xFF	; 255
     4ae:	d2 06       	cpc	r13, r18
     4b0:	24 f0       	brlt	.+8      	; 0x4ba <vfprintf+0x296>
     4b2:	30 e8       	ldi	r19, 0x80	; 128
     4b4:	f3 2a       	or	r15, r19
     4b6:	01 c0       	rjmp	.+2      	; 0x4ba <vfprintf+0x296>
     4b8:	9a 94       	dec	r9
     4ba:	99 20       	and	r9, r9
     4bc:	49 f0       	breq	.+18     	; 0x4d0 <vfprintf+0x2ac>
     4be:	e2 e0       	ldi	r30, 0x02	; 2
     4c0:	f0 e0       	ldi	r31, 0x00	; 0
     4c2:	ec 0f       	add	r30, r28
     4c4:	fd 1f       	adc	r31, r29
     4c6:	e9 0d       	add	r30, r9
     4c8:	f1 1d       	adc	r31, r1
     4ca:	80 81       	ld	r24, Z
     4cc:	80 33       	cpi	r24, 0x30	; 48
     4ce:	a1 f3       	breq	.-24     	; 0x4b8 <vfprintf+0x294>
     4d0:	f7 fe       	sbrs	r15, 7
     4d2:	0a c0       	rjmp	.+20     	; 0x4e8 <vfprintf+0x2c4>
     4d4:	b9 2c       	mov	r11, r9
     4d6:	b3 94       	inc	r11
     4d8:	89 2d       	mov	r24, r9
     4da:	90 e0       	ldi	r25, 0x00	; 0
     4dc:	c8 16       	cp	r12, r24
     4de:	d9 06       	cpc	r13, r25
     4e0:	14 f0       	brlt	.+4      	; 0x4e6 <vfprintf+0x2c2>
     4e2:	99 24       	eor	r9, r9
     4e4:	01 c0       	rjmp	.+2      	; 0x4e8 <vfprintf+0x2c4>
     4e6:	9c 18       	sub	r9, r12
     4e8:	f7 fc       	sbrc	r15, 7
     4ea:	03 c0       	rjmp	.+6      	; 0x4f2 <vfprintf+0x2ce>
     4ec:	25 e0       	ldi	r18, 0x05	; 5
     4ee:	30 e0       	ldi	r19, 0x00	; 0
     4f0:	09 c0       	rjmp	.+18     	; 0x504 <vfprintf+0x2e0>
     4f2:	1c 14       	cp	r1, r12
     4f4:	1d 04       	cpc	r1, r13
     4f6:	1c f0       	brlt	.+6      	; 0x4fe <vfprintf+0x2da>
     4f8:	21 e0       	ldi	r18, 0x01	; 1
     4fa:	30 e0       	ldi	r19, 0x00	; 0
     4fc:	03 c0       	rjmp	.+6      	; 0x504 <vfprintf+0x2e0>
     4fe:	96 01       	movw	r18, r12
     500:	2f 5f       	subi	r18, 0xFF	; 255
     502:	3f 4f       	sbci	r19, 0xFF	; 255
     504:	11 23       	and	r17, r17
     506:	11 f0       	breq	.+4      	; 0x50c <vfprintf+0x2e8>
     508:	2f 5f       	subi	r18, 0xFF	; 255
     50a:	3f 4f       	sbci	r19, 0xFF	; 255
     50c:	99 20       	and	r9, r9
     50e:	29 f0       	breq	.+10     	; 0x51a <vfprintf+0x2f6>
     510:	89 2d       	mov	r24, r9
     512:	90 e0       	ldi	r25, 0x00	; 0
     514:	01 96       	adiw	r24, 0x01	; 1
     516:	28 0f       	add	r18, r24
     518:	39 1f       	adc	r19, r25
     51a:	88 2d       	mov	r24, r8
     51c:	90 e0       	ldi	r25, 0x00	; 0
     51e:	28 17       	cp	r18, r24
     520:	39 07       	cpc	r19, r25
     522:	14 f0       	brlt	.+4      	; 0x528 <vfprintf+0x304>
     524:	88 24       	eor	r8, r8
     526:	01 c0       	rjmp	.+2      	; 0x52a <vfprintf+0x306>
     528:	82 1a       	sub	r8, r18
     52a:	4f 2c       	mov	r4, r15
     52c:	55 24       	eor	r5, r5
     52e:	c2 01       	movw	r24, r4
     530:	89 70       	andi	r24, 0x09	; 9
     532:	90 70       	andi	r25, 0x00	; 0
     534:	89 2b       	or	r24, r25
     536:	39 f0       	breq	.+14     	; 0x546 <vfprintf+0x322>
     538:	08 c0       	rjmp	.+16     	; 0x54a <vfprintf+0x326>
     53a:	80 e2       	ldi	r24, 0x20	; 32
     53c:	90 e0       	ldi	r25, 0x00	; 0
     53e:	b3 01       	movw	r22, r6
     540:	0e 94 f0 11 	call	0x23e0	; 0x23e0 <fputc>
     544:	8a 94       	dec	r8
     546:	88 20       	and	r8, r8
     548:	c1 f7       	brne	.-16     	; 0x53a <vfprintf+0x316>
     54a:	11 23       	and	r17, r17
     54c:	29 f0       	breq	.+10     	; 0x558 <vfprintf+0x334>
     54e:	81 2f       	mov	r24, r17
     550:	90 e0       	ldi	r25, 0x00	; 0
     552:	b3 01       	movw	r22, r6
     554:	0e 94 f0 11 	call	0x23e0	; 0x23e0 <fputc>
     558:	43 fe       	sbrs	r4, 3
     55a:	07 c0       	rjmp	.+14     	; 0x56a <vfprintf+0x346>
     55c:	08 c0       	rjmp	.+16     	; 0x56e <vfprintf+0x34a>
     55e:	80 e3       	ldi	r24, 0x30	; 48
     560:	90 e0       	ldi	r25, 0x00	; 0
     562:	b3 01       	movw	r22, r6
     564:	0e 94 f0 11 	call	0x23e0	; 0x23e0 <fputc>
     568:	8a 94       	dec	r8
     56a:	88 20       	and	r8, r8
     56c:	c1 f7       	brne	.-16     	; 0x55e <vfprintf+0x33a>
     56e:	f7 fe       	sbrs	r15, 7
     570:	46 c0       	rjmp	.+140    	; 0x5fe <vfprintf+0x3da>
     572:	86 01       	movw	r16, r12
     574:	d7 fe       	sbrs	r13, 7
     576:	02 c0       	rjmp	.+4      	; 0x57c <vfprintf+0x358>
     578:	00 e0       	ldi	r16, 0x00	; 0
     57a:	10 e0       	ldi	r17, 0x00	; 0
     57c:	76 01       	movw	r14, r12
     57e:	08 94       	sec
     580:	e1 1c       	adc	r14, r1
     582:	f1 1c       	adc	r15, r1
     584:	e0 1a       	sub	r14, r16
     586:	f1 0a       	sbc	r15, r17
     588:	41 e0       	ldi	r20, 0x01	; 1
     58a:	50 e0       	ldi	r21, 0x00	; 0
     58c:	4c 0f       	add	r20, r28
     58e:	5d 1f       	adc	r21, r29
     590:	e4 0e       	add	r14, r20
     592:	f5 1e       	adc	r15, r21
     594:	26 01       	movw	r4, r12
     596:	4b 18       	sub	r4, r11
     598:	51 08       	sbc	r5, r1
     59a:	89 2d       	mov	r24, r9
     59c:	90 e0       	ldi	r25, 0x00	; 0
     59e:	aa 24       	eor	r10, r10
     5a0:	bb 24       	eor	r11, r11
     5a2:	a8 1a       	sub	r10, r24
     5a4:	b9 0a       	sbc	r11, r25
     5a6:	5f ef       	ldi	r21, 0xFF	; 255
     5a8:	0f 3f       	cpi	r16, 0xFF	; 255
     5aa:	15 07       	cpc	r17, r21
     5ac:	29 f4       	brne	.+10     	; 0x5b8 <vfprintf+0x394>
     5ae:	8e e2       	ldi	r24, 0x2E	; 46
     5b0:	90 e0       	ldi	r25, 0x00	; 0
     5b2:	b3 01       	movw	r22, r6
     5b4:	0e 94 f0 11 	call	0x23e0	; 0x23e0 <fputc>
     5b8:	c0 16       	cp	r12, r16
     5ba:	d1 06       	cpc	r13, r17
     5bc:	34 f0       	brlt	.+12     	; 0x5ca <vfprintf+0x3a6>
     5be:	40 16       	cp	r4, r16
     5c0:	51 06       	cpc	r5, r17
     5c2:	1c f4       	brge	.+6      	; 0x5ca <vfprintf+0x3a6>
     5c4:	f7 01       	movw	r30, r14
     5c6:	80 81       	ld	r24, Z
     5c8:	01 c0       	rjmp	.+2      	; 0x5cc <vfprintf+0x3a8>
     5ca:	80 e3       	ldi	r24, 0x30	; 48
     5cc:	01 50       	subi	r16, 0x01	; 1
     5ce:	10 40       	sbci	r17, 0x00	; 0
     5d0:	08 94       	sec
     5d2:	e1 1c       	adc	r14, r1
     5d4:	f1 1c       	adc	r15, r1
     5d6:	0a 15       	cp	r16, r10
     5d8:	1b 05       	cpc	r17, r11
     5da:	2c f0       	brlt	.+10     	; 0x5e6 <vfprintf+0x3c2>
     5dc:	90 e0       	ldi	r25, 0x00	; 0
     5de:	b3 01       	movw	r22, r6
     5e0:	0e 94 f0 11 	call	0x23e0	; 0x23e0 <fputc>
     5e4:	e0 cf       	rjmp	.-64     	; 0x5a6 <vfprintf+0x382>
     5e6:	0c 15       	cp	r16, r12
     5e8:	1d 05       	cpc	r17, r13
     5ea:	39 f4       	brne	.+14     	; 0x5fa <vfprintf+0x3d6>
     5ec:	9a 81       	ldd	r25, Y+2	; 0x02
     5ee:	96 33       	cpi	r25, 0x36	; 54
     5f0:	18 f4       	brcc	.+6      	; 0x5f8 <vfprintf+0x3d4>
     5f2:	95 33       	cpi	r25, 0x35	; 53
     5f4:	11 f4       	brne	.+4      	; 0x5fa <vfprintf+0x3d6>
     5f6:	24 fe       	sbrs	r2, 4
     5f8:	81 e3       	ldi	r24, 0x31	; 49
     5fa:	90 e0       	ldi	r25, 0x00	; 0
     5fc:	4b c0       	rjmp	.+150    	; 0x694 <vfprintf+0x470>
     5fe:	8a 81       	ldd	r24, Y+2	; 0x02
     600:	81 33       	cpi	r24, 0x31	; 49
     602:	09 f0       	breq	.+2      	; 0x606 <vfprintf+0x3e2>
     604:	0f 7e       	andi	r16, 0xEF	; 239
     606:	90 e0       	ldi	r25, 0x00	; 0
     608:	b3 01       	movw	r22, r6
     60a:	0e 94 f0 11 	call	0x23e0	; 0x23e0 <fputc>
     60e:	99 20       	and	r9, r9
     610:	a1 f0       	breq	.+40     	; 0x63a <vfprintf+0x416>
     612:	8e e2       	ldi	r24, 0x2E	; 46
     614:	90 e0       	ldi	r25, 0x00	; 0
     616:	b3 01       	movw	r22, r6
     618:	0e 94 f0 11 	call	0x23e0	; 0x23e0 <fputc>
     61c:	12 e0       	ldi	r17, 0x02	; 2
     61e:	e1 e0       	ldi	r30, 0x01	; 1
     620:	f0 e0       	ldi	r31, 0x00	; 0
     622:	ec 0f       	add	r30, r28
     624:	fd 1f       	adc	r31, r29
     626:	e1 0f       	add	r30, r17
     628:	f1 1d       	adc	r31, r1
     62a:	1f 5f       	subi	r17, 0xFF	; 255
     62c:	80 81       	ld	r24, Z
     62e:	90 e0       	ldi	r25, 0x00	; 0
     630:	b3 01       	movw	r22, r6
     632:	0e 94 f0 11 	call	0x23e0	; 0x23e0 <fputc>
     636:	9a 94       	dec	r9
     638:	91 f7       	brne	.-28     	; 0x61e <vfprintf+0x3fa>
     63a:	44 fc       	sbrc	r4, 4
     63c:	03 c0       	rjmp	.+6      	; 0x644 <vfprintf+0x420>
     63e:	85 e6       	ldi	r24, 0x65	; 101
     640:	90 e0       	ldi	r25, 0x00	; 0
     642:	02 c0       	rjmp	.+4      	; 0x648 <vfprintf+0x424>
     644:	85 e4       	ldi	r24, 0x45	; 69
     646:	90 e0       	ldi	r25, 0x00	; 0
     648:	b3 01       	movw	r22, r6
     64a:	0e 94 f0 11 	call	0x23e0	; 0x23e0 <fputc>
     64e:	d7 fc       	sbrc	r13, 7
     650:	05 c0       	rjmp	.+10     	; 0x65c <vfprintf+0x438>
     652:	c1 14       	cp	r12, r1
     654:	d1 04       	cpc	r13, r1
     656:	41 f4       	brne	.+16     	; 0x668 <vfprintf+0x444>
     658:	04 ff       	sbrs	r16, 4
     65a:	06 c0       	rjmp	.+12     	; 0x668 <vfprintf+0x444>
     65c:	d0 94       	com	r13
     65e:	c1 94       	neg	r12
     660:	d1 08       	sbc	r13, r1
     662:	d3 94       	inc	r13
     664:	8d e2       	ldi	r24, 0x2D	; 45
     666:	01 c0       	rjmp	.+2      	; 0x66a <vfprintf+0x446>
     668:	8b e2       	ldi	r24, 0x2B	; 43
     66a:	90 e0       	ldi	r25, 0x00	; 0
     66c:	b3 01       	movw	r22, r6
     66e:	0e 94 f0 11 	call	0x23e0	; 0x23e0 <fputc>
     672:	80 e3       	ldi	r24, 0x30	; 48
     674:	05 c0       	rjmp	.+10     	; 0x680 <vfprintf+0x45c>
     676:	8f 5f       	subi	r24, 0xFF	; 255
     678:	26 ef       	ldi	r18, 0xF6	; 246
     67a:	3f ef       	ldi	r19, 0xFF	; 255
     67c:	c2 0e       	add	r12, r18
     67e:	d3 1e       	adc	r13, r19
     680:	3a e0       	ldi	r19, 0x0A	; 10
     682:	c3 16       	cp	r12, r19
     684:	d1 04       	cpc	r13, r1
     686:	bc f7       	brge	.-18     	; 0x676 <vfprintf+0x452>
     688:	90 e0       	ldi	r25, 0x00	; 0
     68a:	b3 01       	movw	r22, r6
     68c:	0e 94 f0 11 	call	0x23e0	; 0x23e0 <fputc>
     690:	c6 01       	movw	r24, r12
     692:	c0 96       	adiw	r24, 0x30	; 48
     694:	b3 01       	movw	r22, r6
     696:	0e 94 f0 11 	call	0x23e0	; 0x23e0 <fputc>
     69a:	cc 84       	ldd	r12, Y+12	; 0x0c
     69c:	dd 84       	ldd	r13, Y+13	; 0x0d
     69e:	52 c1       	rjmp	.+676    	; 0x944 <vfprintf+0x720>
     6a0:	93 36       	cpi	r25, 0x63	; 99
     6a2:	31 f0       	breq	.+12     	; 0x6b0 <vfprintf+0x48c>
     6a4:	93 37       	cpi	r25, 0x73	; 115
     6a6:	99 f0       	breq	.+38     	; 0x6ce <vfprintf+0x4aa>
     6a8:	93 35       	cpi	r25, 0x53	; 83
     6aa:	09 f0       	breq	.+2      	; 0x6ae <vfprintf+0x48a>
     6ac:	59 c0       	rjmp	.+178    	; 0x760 <vfprintf+0x53c>
     6ae:	23 c0       	rjmp	.+70     	; 0x6f6 <vfprintf+0x4d2>
     6b0:	f6 01       	movw	r30, r12
     6b2:	80 81       	ld	r24, Z
     6b4:	89 83       	std	Y+1, r24	; 0x01
     6b6:	5e 01       	movw	r10, r28
     6b8:	08 94       	sec
     6ba:	a1 1c       	adc	r10, r1
     6bc:	b1 1c       	adc	r11, r1
     6be:	22 e0       	ldi	r18, 0x02	; 2
     6c0:	30 e0       	ldi	r19, 0x00	; 0
     6c2:	c2 0e       	add	r12, r18
     6c4:	d3 1e       	adc	r13, r19
     6c6:	21 e0       	ldi	r18, 0x01	; 1
     6c8:	e2 2e       	mov	r14, r18
     6ca:	f1 2c       	mov	r15, r1
     6cc:	12 c0       	rjmp	.+36     	; 0x6f2 <vfprintf+0x4ce>
     6ce:	f6 01       	movw	r30, r12
     6d0:	a0 80       	ld	r10, Z
     6d2:	b1 80       	ldd	r11, Z+1	; 0x01
     6d4:	16 fd       	sbrc	r17, 6
     6d6:	03 c0       	rjmp	.+6      	; 0x6de <vfprintf+0x4ba>
     6d8:	6f ef       	ldi	r22, 0xFF	; 255
     6da:	7f ef       	ldi	r23, 0xFF	; 255
     6dc:	02 c0       	rjmp	.+4      	; 0x6e2 <vfprintf+0x4be>
     6de:	69 2d       	mov	r22, r9
     6e0:	70 e0       	ldi	r23, 0x00	; 0
     6e2:	22 e0       	ldi	r18, 0x02	; 2
     6e4:	30 e0       	ldi	r19, 0x00	; 0
     6e6:	c2 0e       	add	r12, r18
     6e8:	d3 1e       	adc	r13, r19
     6ea:	c5 01       	movw	r24, r10
     6ec:	0e 94 a3 11 	call	0x2346	; 0x2346 <strnlen>
     6f0:	7c 01       	movw	r14, r24
     6f2:	1f 77       	andi	r17, 0x7F	; 127
     6f4:	13 c0       	rjmp	.+38     	; 0x71c <vfprintf+0x4f8>
     6f6:	f6 01       	movw	r30, r12
     6f8:	a0 80       	ld	r10, Z
     6fa:	b1 80       	ldd	r11, Z+1	; 0x01
     6fc:	16 fd       	sbrc	r17, 6
     6fe:	03 c0       	rjmp	.+6      	; 0x706 <vfprintf+0x4e2>
     700:	6f ef       	ldi	r22, 0xFF	; 255
     702:	7f ef       	ldi	r23, 0xFF	; 255
     704:	02 c0       	rjmp	.+4      	; 0x70a <vfprintf+0x4e6>
     706:	69 2d       	mov	r22, r9
     708:	70 e0       	ldi	r23, 0x00	; 0
     70a:	22 e0       	ldi	r18, 0x02	; 2
     70c:	30 e0       	ldi	r19, 0x00	; 0
     70e:	c2 0e       	add	r12, r18
     710:	d3 1e       	adc	r13, r19
     712:	c5 01       	movw	r24, r10
     714:	0e 94 98 11 	call	0x2330	; 0x2330 <strnlen_P>
     718:	7c 01       	movw	r14, r24
     71a:	10 68       	ori	r17, 0x80	; 128
     71c:	13 ff       	sbrs	r17, 3
     71e:	07 c0       	rjmp	.+14     	; 0x72e <vfprintf+0x50a>
     720:	1b c0       	rjmp	.+54     	; 0x758 <vfprintf+0x534>
     722:	80 e2       	ldi	r24, 0x20	; 32
     724:	90 e0       	ldi	r25, 0x00	; 0
     726:	b3 01       	movw	r22, r6
     728:	0e 94 f0 11 	call	0x23e0	; 0x23e0 <fputc>
     72c:	8a 94       	dec	r8
     72e:	88 2d       	mov	r24, r8
     730:	90 e0       	ldi	r25, 0x00	; 0
     732:	e8 16       	cp	r14, r24
     734:	f9 06       	cpc	r15, r25
     736:	a8 f3       	brcs	.-22     	; 0x722 <vfprintf+0x4fe>
     738:	0f c0       	rjmp	.+30     	; 0x758 <vfprintf+0x534>
     73a:	f5 01       	movw	r30, r10
     73c:	17 fd       	sbrc	r17, 7
     73e:	85 91       	lpm	r24, Z+
     740:	17 ff       	sbrs	r17, 7
     742:	81 91       	ld	r24, Z+
     744:	5f 01       	movw	r10, r30
     746:	90 e0       	ldi	r25, 0x00	; 0
     748:	b3 01       	movw	r22, r6
     74a:	0e 94 f0 11 	call	0x23e0	; 0x23e0 <fputc>
     74e:	81 10       	cpse	r8, r1
     750:	8a 94       	dec	r8
     752:	08 94       	sec
     754:	e1 08       	sbc	r14, r1
     756:	f1 08       	sbc	r15, r1
     758:	e1 14       	cp	r14, r1
     75a:	f1 04       	cpc	r15, r1
     75c:	71 f7       	brne	.-36     	; 0x73a <vfprintf+0x516>
     75e:	f2 c0       	rjmp	.+484    	; 0x944 <vfprintf+0x720>
     760:	94 36       	cpi	r25, 0x64	; 100
     762:	11 f0       	breq	.+4      	; 0x768 <vfprintf+0x544>
     764:	99 36       	cpi	r25, 0x69	; 105
     766:	89 f5       	brne	.+98     	; 0x7ca <vfprintf+0x5a6>
     768:	17 ff       	sbrs	r17, 7
     76a:	08 c0       	rjmp	.+16     	; 0x77c <vfprintf+0x558>
     76c:	f6 01       	movw	r30, r12
     76e:	20 81       	ld	r18, Z
     770:	31 81       	ldd	r19, Z+1	; 0x01
     772:	42 81       	ldd	r20, Z+2	; 0x02
     774:	53 81       	ldd	r21, Z+3	; 0x03
     776:	84 e0       	ldi	r24, 0x04	; 4
     778:	90 e0       	ldi	r25, 0x00	; 0
     77a:	0a c0       	rjmp	.+20     	; 0x790 <vfprintf+0x56c>
     77c:	f6 01       	movw	r30, r12
     77e:	80 81       	ld	r24, Z
     780:	91 81       	ldd	r25, Z+1	; 0x01
     782:	9c 01       	movw	r18, r24
     784:	44 27       	eor	r20, r20
     786:	37 fd       	sbrc	r19, 7
     788:	40 95       	com	r20
     78a:	54 2f       	mov	r21, r20
     78c:	82 e0       	ldi	r24, 0x02	; 2
     78e:	90 e0       	ldi	r25, 0x00	; 0
     790:	c8 0e       	add	r12, r24
     792:	d9 1e       	adc	r13, r25
     794:	9f e6       	ldi	r25, 0x6F	; 111
     796:	f9 2e       	mov	r15, r25
     798:	f1 22       	and	r15, r17
     79a:	57 ff       	sbrs	r21, 7
     79c:	09 c0       	rjmp	.+18     	; 0x7b0 <vfprintf+0x58c>
     79e:	50 95       	com	r21
     7a0:	40 95       	com	r20
     7a2:	30 95       	com	r19
     7a4:	21 95       	neg	r18
     7a6:	3f 4f       	sbci	r19, 0xFF	; 255
     7a8:	4f 4f       	sbci	r20, 0xFF	; 255
     7aa:	5f 4f       	sbci	r21, 0xFF	; 255
     7ac:	90 e8       	ldi	r25, 0x80	; 128
     7ae:	f9 2a       	or	r15, r25
     7b0:	ca 01       	movw	r24, r20
     7b2:	b9 01       	movw	r22, r18
     7b4:	ae 01       	movw	r20, r28
     7b6:	4f 5f       	subi	r20, 0xFF	; 255
     7b8:	5f 4f       	sbci	r21, 0xFF	; 255
     7ba:	2a e0       	ldi	r18, 0x0A	; 10
     7bc:	30 e0       	ldi	r19, 0x00	; 0
     7be:	0e 94 97 12 	call	0x252e	; 0x252e <__ultoa_invert>
     7c2:	e8 2e       	mov	r14, r24
     7c4:	e8 89       	ldd	r30, Y+16	; 0x10
     7c6:	ee 1a       	sub	r14, r30
     7c8:	41 c0       	rjmp	.+130    	; 0x84c <vfprintf+0x628>
     7ca:	95 37       	cpi	r25, 0x75	; 117
     7cc:	21 f4       	brne	.+8      	; 0x7d6 <vfprintf+0x5b2>
     7ce:	1f 7e       	andi	r17, 0xEF	; 239
     7d0:	2a e0       	ldi	r18, 0x0A	; 10
     7d2:	30 e0       	ldi	r19, 0x00	; 0
     7d4:	1c c0       	rjmp	.+56     	; 0x80e <vfprintf+0x5ea>
     7d6:	19 7f       	andi	r17, 0xF9	; 249
     7d8:	9f 36       	cpi	r25, 0x6F	; 111
     7da:	61 f0       	breq	.+24     	; 0x7f4 <vfprintf+0x5d0>
     7dc:	90 37       	cpi	r25, 0x70	; 112
     7de:	20 f4       	brcc	.+8      	; 0x7e8 <vfprintf+0x5c4>
     7e0:	98 35       	cpi	r25, 0x58	; 88
     7e2:	09 f0       	breq	.+2      	; 0x7e6 <vfprintf+0x5c2>
     7e4:	b2 c0       	rjmp	.+356    	; 0x94a <vfprintf+0x726>
     7e6:	0f c0       	rjmp	.+30     	; 0x806 <vfprintf+0x5e2>
     7e8:	90 37       	cpi	r25, 0x70	; 112
     7ea:	39 f0       	breq	.+14     	; 0x7fa <vfprintf+0x5d6>
     7ec:	98 37       	cpi	r25, 0x78	; 120
     7ee:	09 f0       	breq	.+2      	; 0x7f2 <vfprintf+0x5ce>
     7f0:	ac c0       	rjmp	.+344    	; 0x94a <vfprintf+0x726>
     7f2:	04 c0       	rjmp	.+8      	; 0x7fc <vfprintf+0x5d8>
     7f4:	28 e0       	ldi	r18, 0x08	; 8
     7f6:	30 e0       	ldi	r19, 0x00	; 0
     7f8:	0a c0       	rjmp	.+20     	; 0x80e <vfprintf+0x5ea>
     7fa:	10 61       	ori	r17, 0x10	; 16
     7fc:	14 fd       	sbrc	r17, 4
     7fe:	14 60       	ori	r17, 0x04	; 4
     800:	20 e1       	ldi	r18, 0x10	; 16
     802:	30 e0       	ldi	r19, 0x00	; 0
     804:	04 c0       	rjmp	.+8      	; 0x80e <vfprintf+0x5ea>
     806:	14 fd       	sbrc	r17, 4
     808:	16 60       	ori	r17, 0x06	; 6
     80a:	20 e1       	ldi	r18, 0x10	; 16
     80c:	32 e0       	ldi	r19, 0x02	; 2
     80e:	17 ff       	sbrs	r17, 7
     810:	08 c0       	rjmp	.+16     	; 0x822 <vfprintf+0x5fe>
     812:	f6 01       	movw	r30, r12
     814:	60 81       	ld	r22, Z
     816:	71 81       	ldd	r23, Z+1	; 0x01
     818:	82 81       	ldd	r24, Z+2	; 0x02
     81a:	93 81       	ldd	r25, Z+3	; 0x03
     81c:	44 e0       	ldi	r20, 0x04	; 4
     81e:	50 e0       	ldi	r21, 0x00	; 0
     820:	08 c0       	rjmp	.+16     	; 0x832 <vfprintf+0x60e>
     822:	f6 01       	movw	r30, r12
     824:	80 81       	ld	r24, Z
     826:	91 81       	ldd	r25, Z+1	; 0x01
     828:	bc 01       	movw	r22, r24
     82a:	80 e0       	ldi	r24, 0x00	; 0
     82c:	90 e0       	ldi	r25, 0x00	; 0
     82e:	42 e0       	ldi	r20, 0x02	; 2
     830:	50 e0       	ldi	r21, 0x00	; 0
     832:	c4 0e       	add	r12, r20
     834:	d5 1e       	adc	r13, r21
     836:	ae 01       	movw	r20, r28
     838:	4f 5f       	subi	r20, 0xFF	; 255
     83a:	5f 4f       	sbci	r21, 0xFF	; 255
     83c:	0e 94 97 12 	call	0x252e	; 0x252e <__ultoa_invert>
     840:	e8 2e       	mov	r14, r24
     842:	58 89       	ldd	r21, Y+16	; 0x10
     844:	e5 1a       	sub	r14, r21
     846:	8f e7       	ldi	r24, 0x7F	; 127
     848:	f8 2e       	mov	r15, r24
     84a:	f1 22       	and	r15, r17
     84c:	f6 fe       	sbrs	r15, 6
     84e:	0b c0       	rjmp	.+22     	; 0x866 <vfprintf+0x642>
     850:	8e ef       	ldi	r24, 0xFE	; 254
     852:	f8 22       	and	r15, r24
     854:	e9 14       	cp	r14, r9
     856:	38 f4       	brcc	.+14     	; 0x866 <vfprintf+0x642>
     858:	f4 fe       	sbrs	r15, 4
     85a:	07 c0       	rjmp	.+14     	; 0x86a <vfprintf+0x646>
     85c:	f2 fc       	sbrc	r15, 2
     85e:	05 c0       	rjmp	.+10     	; 0x86a <vfprintf+0x646>
     860:	9f ee       	ldi	r25, 0xEF	; 239
     862:	f9 22       	and	r15, r25
     864:	02 c0       	rjmp	.+4      	; 0x86a <vfprintf+0x646>
     866:	1e 2d       	mov	r17, r14
     868:	01 c0       	rjmp	.+2      	; 0x86c <vfprintf+0x648>
     86a:	19 2d       	mov	r17, r9
     86c:	f4 fe       	sbrs	r15, 4
     86e:	0d c0       	rjmp	.+26     	; 0x88a <vfprintf+0x666>
     870:	fe 01       	movw	r30, r28
     872:	ee 0d       	add	r30, r14
     874:	f1 1d       	adc	r31, r1
     876:	80 81       	ld	r24, Z
     878:	80 33       	cpi	r24, 0x30	; 48
     87a:	19 f4       	brne	.+6      	; 0x882 <vfprintf+0x65e>
     87c:	e9 ee       	ldi	r30, 0xE9	; 233
     87e:	fe 22       	and	r15, r30
     880:	08 c0       	rjmp	.+16     	; 0x892 <vfprintf+0x66e>
     882:	1f 5f       	subi	r17, 0xFF	; 255
     884:	f2 fe       	sbrs	r15, 2
     886:	05 c0       	rjmp	.+10     	; 0x892 <vfprintf+0x66e>
     888:	03 c0       	rjmp	.+6      	; 0x890 <vfprintf+0x66c>
     88a:	8f 2d       	mov	r24, r15
     88c:	86 78       	andi	r24, 0x86	; 134
     88e:	09 f0       	breq	.+2      	; 0x892 <vfprintf+0x66e>
     890:	1f 5f       	subi	r17, 0xFF	; 255
     892:	0f 2d       	mov	r16, r15
     894:	f3 fc       	sbrc	r15, 3
     896:	14 c0       	rjmp	.+40     	; 0x8c0 <vfprintf+0x69c>
     898:	f0 fe       	sbrs	r15, 0
     89a:	0f c0       	rjmp	.+30     	; 0x8ba <vfprintf+0x696>
     89c:	18 15       	cp	r17, r8
     89e:	10 f0       	brcs	.+4      	; 0x8a4 <vfprintf+0x680>
     8a0:	9e 2c       	mov	r9, r14
     8a2:	0b c0       	rjmp	.+22     	; 0x8ba <vfprintf+0x696>
     8a4:	9e 2c       	mov	r9, r14
     8a6:	98 0c       	add	r9, r8
     8a8:	91 1a       	sub	r9, r17
     8aa:	18 2d       	mov	r17, r8
     8ac:	06 c0       	rjmp	.+12     	; 0x8ba <vfprintf+0x696>
     8ae:	80 e2       	ldi	r24, 0x20	; 32
     8b0:	90 e0       	ldi	r25, 0x00	; 0
     8b2:	b3 01       	movw	r22, r6
     8b4:	0e 94 f0 11 	call	0x23e0	; 0x23e0 <fputc>
     8b8:	1f 5f       	subi	r17, 0xFF	; 255
     8ba:	18 15       	cp	r17, r8
     8bc:	c0 f3       	brcs	.-16     	; 0x8ae <vfprintf+0x68a>
     8be:	04 c0       	rjmp	.+8      	; 0x8c8 <vfprintf+0x6a4>
     8c0:	18 15       	cp	r17, r8
     8c2:	10 f4       	brcc	.+4      	; 0x8c8 <vfprintf+0x6a4>
     8c4:	81 1a       	sub	r8, r17
     8c6:	01 c0       	rjmp	.+2      	; 0x8ca <vfprintf+0x6a6>
     8c8:	88 24       	eor	r8, r8
     8ca:	04 ff       	sbrs	r16, 4
     8cc:	0f c0       	rjmp	.+30     	; 0x8ec <vfprintf+0x6c8>
     8ce:	80 e3       	ldi	r24, 0x30	; 48
     8d0:	90 e0       	ldi	r25, 0x00	; 0
     8d2:	b3 01       	movw	r22, r6
     8d4:	0e 94 f0 11 	call	0x23e0	; 0x23e0 <fputc>
     8d8:	02 ff       	sbrs	r16, 2
     8da:	1d c0       	rjmp	.+58     	; 0x916 <vfprintf+0x6f2>
     8dc:	01 fd       	sbrc	r16, 1
     8de:	03 c0       	rjmp	.+6      	; 0x8e6 <vfprintf+0x6c2>
     8e0:	88 e7       	ldi	r24, 0x78	; 120
     8e2:	90 e0       	ldi	r25, 0x00	; 0
     8e4:	0e c0       	rjmp	.+28     	; 0x902 <vfprintf+0x6de>
     8e6:	88 e5       	ldi	r24, 0x58	; 88
     8e8:	90 e0       	ldi	r25, 0x00	; 0
     8ea:	0b c0       	rjmp	.+22     	; 0x902 <vfprintf+0x6de>
     8ec:	80 2f       	mov	r24, r16
     8ee:	86 78       	andi	r24, 0x86	; 134
     8f0:	91 f0       	breq	.+36     	; 0x916 <vfprintf+0x6f2>
     8f2:	01 ff       	sbrs	r16, 1
     8f4:	02 c0       	rjmp	.+4      	; 0x8fa <vfprintf+0x6d6>
     8f6:	8b e2       	ldi	r24, 0x2B	; 43
     8f8:	01 c0       	rjmp	.+2      	; 0x8fc <vfprintf+0x6d8>
     8fa:	80 e2       	ldi	r24, 0x20	; 32
     8fc:	f7 fc       	sbrc	r15, 7
     8fe:	8d e2       	ldi	r24, 0x2D	; 45
     900:	90 e0       	ldi	r25, 0x00	; 0
     902:	b3 01       	movw	r22, r6
     904:	0e 94 f0 11 	call	0x23e0	; 0x23e0 <fputc>
     908:	06 c0       	rjmp	.+12     	; 0x916 <vfprintf+0x6f2>
     90a:	80 e3       	ldi	r24, 0x30	; 48
     90c:	90 e0       	ldi	r25, 0x00	; 0
     90e:	b3 01       	movw	r22, r6
     910:	0e 94 f0 11 	call	0x23e0	; 0x23e0 <fputc>
     914:	9a 94       	dec	r9
     916:	e9 14       	cp	r14, r9
     918:	c0 f3       	brcs	.-16     	; 0x90a <vfprintf+0x6e6>
     91a:	ea 94       	dec	r14
     91c:	e1 e0       	ldi	r30, 0x01	; 1
     91e:	f0 e0       	ldi	r31, 0x00	; 0
     920:	ec 0f       	add	r30, r28
     922:	fd 1f       	adc	r31, r29
     924:	ee 0d       	add	r30, r14
     926:	f1 1d       	adc	r31, r1
     928:	80 81       	ld	r24, Z
     92a:	90 e0       	ldi	r25, 0x00	; 0
     92c:	b3 01       	movw	r22, r6
     92e:	0e 94 f0 11 	call	0x23e0	; 0x23e0 <fputc>
     932:	ee 20       	and	r14, r14
     934:	91 f7       	brne	.-28     	; 0x91a <vfprintf+0x6f6>
     936:	06 c0       	rjmp	.+12     	; 0x944 <vfprintf+0x720>
     938:	80 e2       	ldi	r24, 0x20	; 32
     93a:	90 e0       	ldi	r25, 0x00	; 0
     93c:	b3 01       	movw	r22, r6
     93e:	0e 94 f0 11 	call	0x23e0	; 0x23e0 <fputc>
     942:	8a 94       	dec	r8
     944:	88 20       	and	r8, r8
     946:	c1 f7       	brne	.-16     	; 0x938 <vfprintf+0x714>
     948:	99 cc       	rjmp	.-1742   	; 0x27c <vfprintf+0x58>
     94a:	f3 01       	movw	r30, r6
     94c:	66 81       	ldd	r22, Z+6	; 0x06
     94e:	77 81       	ldd	r23, Z+7	; 0x07
     950:	cb 01       	movw	r24, r22
     952:	61 96       	adiw	r28, 0x11	; 17
     954:	0f b6       	in	r0, 0x3f	; 63
     956:	f8 94       	cli
     958:	de bf       	out	0x3e, r29	; 62
     95a:	0f be       	out	0x3f, r0	; 63
     95c:	cd bf       	out	0x3d, r28	; 61
     95e:	cf 91       	pop	r28
     960:	df 91       	pop	r29
     962:	1f 91       	pop	r17
     964:	0f 91       	pop	r16
     966:	ff 90       	pop	r15
     968:	ef 90       	pop	r14
     96a:	df 90       	pop	r13
     96c:	cf 90       	pop	r12
     96e:	bf 90       	pop	r11
     970:	af 90       	pop	r10
     972:	9f 90       	pop	r9
     974:	8f 90       	pop	r8
     976:	7f 90       	pop	r7
     978:	6f 90       	pop	r6
     97a:	5f 90       	pop	r5
     97c:	4f 90       	pop	r4
     97e:	3f 90       	pop	r3
     980:	2f 90       	pop	r2
     982:	08 95       	ret

00000984 <putval>:
     984:	fc 01       	movw	r30, r24
     986:	20 fd       	sbrc	r18, 0
     988:	08 c0       	rjmp	.+16     	; 0x99a <putval+0x16>
     98a:	23 fd       	sbrc	r18, 3
     98c:	05 c0       	rjmp	.+10     	; 0x998 <putval+0x14>
     98e:	22 ff       	sbrs	r18, 2
     990:	02 c0       	rjmp	.+4      	; 0x996 <putval+0x12>
     992:	73 83       	std	Z+3, r23	; 0x03
     994:	62 83       	std	Z+2, r22	; 0x02
     996:	51 83       	std	Z+1, r21	; 0x01
     998:	40 83       	st	Z, r20
     99a:	08 95       	ret

0000099c <mulacc>:
     99c:	ef 92       	push	r14
     99e:	ff 92       	push	r15
     9a0:	0f 93       	push	r16
     9a2:	1f 93       	push	r17
     9a4:	44 ff       	sbrs	r20, 4
     9a6:	02 c0       	rjmp	.+4      	; 0x9ac <mulacc+0x10>
     9a8:	33 e0       	ldi	r19, 0x03	; 3
     9aa:	11 c0       	rjmp	.+34     	; 0x9ce <mulacc+0x32>
     9ac:	46 ff       	sbrs	r20, 6
     9ae:	02 c0       	rjmp	.+4      	; 0x9b4 <mulacc+0x18>
     9b0:	34 e0       	ldi	r19, 0x04	; 4
     9b2:	0d c0       	rjmp	.+26     	; 0x9ce <mulacc+0x32>
     9b4:	db 01       	movw	r26, r22
     9b6:	fc 01       	movw	r30, r24
     9b8:	aa 0f       	add	r26, r26
     9ba:	bb 1f       	adc	r27, r27
     9bc:	ee 1f       	adc	r30, r30
     9be:	ff 1f       	adc	r31, r31
     9c0:	10 94       	com	r1
     9c2:	d1 f7       	brne	.-12     	; 0x9b8 <mulacc+0x1c>
     9c4:	6a 0f       	add	r22, r26
     9c6:	7b 1f       	adc	r23, r27
     9c8:	8e 1f       	adc	r24, r30
     9ca:	9f 1f       	adc	r25, r31
     9cc:	31 e0       	ldi	r19, 0x01	; 1
     9ce:	66 0f       	add	r22, r22
     9d0:	77 1f       	adc	r23, r23
     9d2:	88 1f       	adc	r24, r24
     9d4:	99 1f       	adc	r25, r25
     9d6:	31 50       	subi	r19, 0x01	; 1
     9d8:	d1 f7       	brne	.-12     	; 0x9ce <mulacc+0x32>
     9da:	7b 01       	movw	r14, r22
     9dc:	8c 01       	movw	r16, r24
     9de:	e2 0e       	add	r14, r18
     9e0:	f1 1c       	adc	r15, r1
     9e2:	01 1d       	adc	r16, r1
     9e4:	11 1d       	adc	r17, r1
     9e6:	a8 01       	movw	r20, r16
     9e8:	97 01       	movw	r18, r14
     9ea:	b7 01       	movw	r22, r14
     9ec:	ca 01       	movw	r24, r20
     9ee:	1f 91       	pop	r17
     9f0:	0f 91       	pop	r16
     9f2:	ff 90       	pop	r15
     9f4:	ef 90       	pop	r14
     9f6:	08 95       	ret

000009f8 <skip_spaces>:
     9f8:	0f 93       	push	r16
     9fa:	1f 93       	push	r17
     9fc:	cf 93       	push	r28
     9fe:	df 93       	push	r29
     a00:	8c 01       	movw	r16, r24
     a02:	c8 01       	movw	r24, r16
     a04:	0e 94 ae 11 	call	0x235c	; 0x235c <fgetc>
     a08:	ec 01       	movw	r28, r24
     a0a:	97 fd       	sbrc	r25, 7
     a0c:	08 c0       	rjmp	.+16     	; 0xa1e <skip_spaces+0x26>
     a0e:	0e 94 7d 11 	call	0x22fa	; 0x22fa <isspace>
     a12:	89 2b       	or	r24, r25
     a14:	b1 f7       	brne	.-20     	; 0xa02 <skip_spaces+0xa>
     a16:	ce 01       	movw	r24, r28
     a18:	b8 01       	movw	r22, r16
     a1a:	0e 94 7d 12 	call	0x24fa	; 0x24fa <ungetc>
     a1e:	ce 01       	movw	r24, r28
     a20:	df 91       	pop	r29
     a22:	cf 91       	pop	r28
     a24:	1f 91       	pop	r17
     a26:	0f 91       	pop	r16
     a28:	08 95       	ret

00000a2a <conv_int>:
     a2a:	8f 92       	push	r8
     a2c:	9f 92       	push	r9
     a2e:	af 92       	push	r10
     a30:	bf 92       	push	r11
     a32:	df 92       	push	r13
     a34:	ef 92       	push	r14
     a36:	ff 92       	push	r15
     a38:	0f 93       	push	r16
     a3a:	1f 93       	push	r17
     a3c:	cf 93       	push	r28
     a3e:	df 93       	push	r29
     a40:	5c 01       	movw	r10, r24
     a42:	eb 01       	movw	r28, r22
     a44:	4a 01       	movw	r8, r20
     a46:	12 2f       	mov	r17, r18
     a48:	0e 94 ae 11 	call	0x235c	; 0x235c <fgetc>
     a4c:	ac 01       	movw	r20, r24
     a4e:	8b 32       	cpi	r24, 0x2B	; 43
     a50:	19 f0       	breq	.+6      	; 0xa58 <conv_int+0x2e>
     a52:	8d 32       	cpi	r24, 0x2D	; 45
     a54:	51 f4       	brne	.+20     	; 0xa6a <conv_int+0x40>
     a56:	10 68       	ori	r17, 0x80	; 128
     a58:	21 97       	sbiw	r28, 0x01	; 1
     a5a:	09 f4       	brne	.+2      	; 0xa5e <conv_int+0x34>
     a5c:	6b c0       	rjmp	.+214    	; 0xb34 <conv_int+0x10a>
     a5e:	c5 01       	movw	r24, r10
     a60:	0e 94 ae 11 	call	0x235c	; 0x235c <fgetc>
     a64:	ac 01       	movw	r20, r24
     a66:	97 fd       	sbrc	r25, 7
     a68:	65 c0       	rjmp	.+202    	; 0xb34 <conv_int+0x10a>
     a6a:	6d ef       	ldi	r22, 0xFD	; 253
     a6c:	d6 2e       	mov	r13, r22
     a6e:	d1 22       	and	r13, r17
     a70:	8d 2d       	mov	r24, r13
     a72:	80 73       	andi	r24, 0x30	; 48
     a74:	01 f5       	brne	.+64     	; 0xab6 <conv_int+0x8c>
     a76:	40 33       	cpi	r20, 0x30	; 48
     a78:	f1 f4       	brne	.+60     	; 0xab6 <conv_int+0x8c>
     a7a:	21 97       	sbiw	r28, 0x01	; 1
     a7c:	09 f4       	brne	.+2      	; 0xa80 <conv_int+0x56>
     a7e:	46 c0       	rjmp	.+140    	; 0xb0c <conv_int+0xe2>
     a80:	c5 01       	movw	r24, r10
     a82:	0e 94 ae 11 	call	0x235c	; 0x235c <fgetc>
     a86:	ac 01       	movw	r20, r24
     a88:	97 fd       	sbrc	r25, 7
     a8a:	40 c0       	rjmp	.+128    	; 0xb0c <conv_int+0xe2>
     a8c:	82 e0       	ldi	r24, 0x02	; 2
     a8e:	d8 2a       	or	r13, r24
     a90:	48 37       	cpi	r20, 0x78	; 120
     a92:	11 f0       	breq	.+4      	; 0xa98 <conv_int+0x6e>
     a94:	48 35       	cpi	r20, 0x58	; 88
     a96:	59 f4       	brne	.+22     	; 0xaae <conv_int+0x84>
     a98:	80 e4       	ldi	r24, 0x40	; 64
     a9a:	d8 2a       	or	r13, r24
     a9c:	21 97       	sbiw	r28, 0x01	; 1
     a9e:	b1 f1       	breq	.+108    	; 0xb0c <conv_int+0xe2>
     aa0:	c5 01       	movw	r24, r10
     aa2:	0e 94 ae 11 	call	0x235c	; 0x235c <fgetc>
     aa6:	ac 01       	movw	r20, r24
     aa8:	99 23       	and	r25, r25
     aaa:	2c f4       	brge	.+10     	; 0xab6 <conv_int+0x8c>
     aac:	2f c0       	rjmp	.+94     	; 0xb0c <conv_int+0xe2>
     aae:	d6 fc       	sbrc	r13, 6
     ab0:	02 c0       	rjmp	.+4      	; 0xab6 <conv_int+0x8c>
     ab2:	80 e1       	ldi	r24, 0x10	; 16
     ab4:	d8 2a       	or	r13, r24
     ab6:	ee 24       	eor	r14, r14
     ab8:	ff 24       	eor	r15, r15
     aba:	87 01       	movw	r16, r14
     abc:	24 2f       	mov	r18, r20
     abe:	20 53       	subi	r18, 0x30	; 48
     ac0:	28 30       	cpi	r18, 0x08	; 8
     ac2:	88 f0       	brcs	.+34     	; 0xae6 <conv_int+0xbc>
     ac4:	d4 fc       	sbrc	r13, 4
     ac6:	09 c0       	rjmp	.+18     	; 0xada <conv_int+0xb0>
     ac8:	2a 30       	cpi	r18, 0x0A	; 10
     aca:	68 f0       	brcs	.+26     	; 0xae6 <conv_int+0xbc>
     acc:	d6 fe       	sbrs	r13, 6
     ace:	05 c0       	rjmp	.+10     	; 0xada <conv_int+0xb0>
     ad0:	2f 7d       	andi	r18, 0xDF	; 223
     ad2:	82 2f       	mov	r24, r18
     ad4:	81 51       	subi	r24, 0x11	; 17
     ad6:	86 30       	cpi	r24, 0x06	; 6
     ad8:	28 f0       	brcs	.+10     	; 0xae4 <conv_int+0xba>
     ada:	ca 01       	movw	r24, r20
     adc:	b5 01       	movw	r22, r10
     ade:	0e 94 7d 12 	call	0x24fa	; 0x24fa <ungetc>
     ae2:	11 c0       	rjmp	.+34     	; 0xb06 <conv_int+0xdc>
     ae4:	27 50       	subi	r18, 0x07	; 7
     ae6:	c8 01       	movw	r24, r16
     ae8:	b7 01       	movw	r22, r14
     aea:	4d 2d       	mov	r20, r13
     aec:	57 df       	rcall	.-338    	; 0x99c <mulacc>
     aee:	7b 01       	movw	r14, r22
     af0:	8c 01       	movw	r16, r24
     af2:	82 e0       	ldi	r24, 0x02	; 2
     af4:	d8 2a       	or	r13, r24
     af6:	21 97       	sbiw	r28, 0x01	; 1
     af8:	61 f0       	breq	.+24     	; 0xb12 <conv_int+0xe8>
     afa:	c5 01       	movw	r24, r10
     afc:	0e 94 ae 11 	call	0x235c	; 0x235c <fgetc>
     b00:	ac 01       	movw	r20, r24
     b02:	97 ff       	sbrs	r25, 7
     b04:	db cf       	rjmp	.-74     	; 0xabc <conv_int+0x92>
     b06:	d1 fc       	sbrc	r13, 1
     b08:	04 c0       	rjmp	.+8      	; 0xb12 <conv_int+0xe8>
     b0a:	14 c0       	rjmp	.+40     	; 0xb34 <conv_int+0x10a>
     b0c:	ee 24       	eor	r14, r14
     b0e:	ff 24       	eor	r15, r15
     b10:	87 01       	movw	r16, r14
     b12:	d7 fe       	sbrs	r13, 7
     b14:	08 c0       	rjmp	.+16     	; 0xb26 <conv_int+0xfc>
     b16:	10 95       	com	r17
     b18:	00 95       	com	r16
     b1a:	f0 94       	com	r15
     b1c:	e0 94       	com	r14
     b1e:	e1 1c       	adc	r14, r1
     b20:	f1 1c       	adc	r15, r1
     b22:	01 1d       	adc	r16, r1
     b24:	11 1d       	adc	r17, r1
     b26:	c4 01       	movw	r24, r8
     b28:	b8 01       	movw	r22, r16
     b2a:	a7 01       	movw	r20, r14
     b2c:	2d 2d       	mov	r18, r13
     b2e:	2a df       	rcall	.-428    	; 0x984 <putval>
     b30:	81 e0       	ldi	r24, 0x01	; 1
     b32:	01 c0       	rjmp	.+2      	; 0xb36 <conv_int+0x10c>
     b34:	80 e0       	ldi	r24, 0x00	; 0
     b36:	df 91       	pop	r29
     b38:	cf 91       	pop	r28
     b3a:	1f 91       	pop	r17
     b3c:	0f 91       	pop	r16
     b3e:	ff 90       	pop	r15
     b40:	ef 90       	pop	r14
     b42:	df 90       	pop	r13
     b44:	bf 90       	pop	r11
     b46:	af 90       	pop	r10
     b48:	9f 90       	pop	r9
     b4a:	8f 90       	pop	r8
     b4c:	08 95       	ret

00000b4e <conv_brk>:
     b4e:	6f 92       	push	r6
     b50:	7f 92       	push	r7
     b52:	8f 92       	push	r8
     b54:	9f 92       	push	r9
     b56:	af 92       	push	r10
     b58:	bf 92       	push	r11
     b5a:	cf 92       	push	r12
     b5c:	df 92       	push	r13
     b5e:	ef 92       	push	r14
     b60:	ff 92       	push	r15
     b62:	0f 93       	push	r16
     b64:	1f 93       	push	r17
     b66:	df 93       	push	r29
     b68:	cf 93       	push	r28
     b6a:	cd b7       	in	r28, 0x3d	; 61
     b6c:	de b7       	in	r29, 0x3e	; 62
     b6e:	a0 97       	sbiw	r28, 0x20	; 32
     b70:	0f b6       	in	r0, 0x3f	; 63
     b72:	f8 94       	cli
     b74:	de bf       	out	0x3e, r29	; 62
     b76:	0f be       	out	0x3f, r0	; 63
     b78:	cd bf       	out	0x3d, r28	; 61
     b7a:	5c 01       	movw	r10, r24
     b7c:	6b 01       	movw	r12, r22
     b7e:	8a 01       	movw	r16, r20
     b80:	79 01       	movw	r14, r18
     b82:	fe 01       	movw	r30, r28
     b84:	31 96       	adiw	r30, 0x01	; 1
     b86:	80 e2       	ldi	r24, 0x20	; 32
     b88:	df 01       	movw	r26, r30
     b8a:	1d 92       	st	X+, r1
     b8c:	8a 95       	dec	r24
     b8e:	e9 f7       	brne	.-6      	; 0xb8a <conv_brk+0x3c>
     b90:	70 e0       	ldi	r23, 0x00	; 0
     b92:	30 e0       	ldi	r19, 0x00	; 0
     b94:	60 e0       	ldi	r22, 0x00	; 0
     b96:	40 e0       	ldi	r20, 0x00	; 0
     b98:	50 e0       	ldi	r21, 0x00	; 0
     b9a:	3f 01       	movw	r6, r30
     b9c:	a1 e0       	ldi	r26, 0x01	; 1
     b9e:	b0 e0       	ldi	r27, 0x00	; 0
     ba0:	f5 01       	movw	r30, r10
     ba2:	83 81       	ldd	r24, Z+3	; 0x03
     ba4:	f7 01       	movw	r30, r14
     ba6:	83 fd       	sbrc	r24, 3
     ba8:	25 91       	lpm	r18, Z+
     baa:	83 ff       	sbrs	r24, 3
     bac:	21 91       	ld	r18, Z+
     bae:	7f 01       	movw	r14, r30
     bb0:	22 23       	and	r18, r18
     bb2:	09 f4       	brne	.+2      	; 0xbb6 <conv_brk+0x68>
     bb4:	81 c0       	rjmp	.+258    	; 0xcb8 <conv_brk+0x16a>
     bb6:	2e 35       	cpi	r18, 0x5E	; 94
     bb8:	19 f4       	brne	.+6      	; 0xbc0 <conv_brk+0x72>
     bba:	41 15       	cp	r20, r1
     bbc:	51 05       	cpc	r21, r1
     bbe:	69 f1       	breq	.+90     	; 0xc1a <conv_brk+0xcc>
     bc0:	87 2f       	mov	r24, r23
     bc2:	90 e0       	ldi	r25, 0x00	; 0
     bc4:	84 17       	cp	r24, r20
     bc6:	95 07       	cpc	r25, r21
     bc8:	44 f4       	brge	.+16     	; 0xbda <conv_brk+0x8c>
     bca:	2d 35       	cpi	r18, 0x5D	; 93
     bcc:	51 f1       	breq	.+84     	; 0xc22 <conv_brk+0xd4>
     bce:	2d 32       	cpi	r18, 0x2D	; 45
     bd0:	21 f4       	brne	.+8      	; 0xbda <conv_brk+0x8c>
     bd2:	33 23       	and	r19, r19
     bd4:	29 f4       	brne	.+10     	; 0xbe0 <conv_brk+0x92>
     bd6:	31 e0       	ldi	r19, 0x01	; 1
     bd8:	21 c0       	rjmp	.+66     	; 0xc1c <conv_brk+0xce>
     bda:	33 23       	and	r19, r19
     bdc:	09 f4       	brne	.+2      	; 0xbe0 <conv_brk+0x92>
     bde:	62 2f       	mov	r22, r18
     be0:	32 2f       	mov	r19, r18
     be2:	83 2f       	mov	r24, r19
     be4:	86 95       	lsr	r24
     be6:	86 95       	lsr	r24
     be8:	86 95       	lsr	r24
     bea:	f3 01       	movw	r30, r6
     bec:	e8 0f       	add	r30, r24
     bee:	f1 1d       	adc	r31, r1
     bf0:	83 2f       	mov	r24, r19
     bf2:	87 70       	andi	r24, 0x07	; 7
     bf4:	4d 01       	movw	r8, r26
     bf6:	02 c0       	rjmp	.+4      	; 0xbfc <conv_brk+0xae>
     bf8:	88 0c       	add	r8, r8
     bfa:	99 1c       	adc	r9, r9
     bfc:	8a 95       	dec	r24
     bfe:	e2 f7       	brpl	.-8      	; 0xbf8 <conv_brk+0xaa>
     c00:	20 81       	ld	r18, Z
     c02:	28 29       	or	r18, r8
     c04:	20 83       	st	Z, r18
     c06:	36 17       	cp	r19, r22
     c08:	11 f4       	brne	.+4      	; 0xc0e <conv_brk+0xc0>
     c0a:	30 e0       	ldi	r19, 0x00	; 0
     c0c:	07 c0       	rjmp	.+14     	; 0xc1c <conv_brk+0xce>
     c0e:	36 17       	cp	r19, r22
     c10:	10 f4       	brcc	.+4      	; 0xc16 <conv_brk+0xc8>
     c12:	3f 5f       	subi	r19, 0xFF	; 255
     c14:	e6 cf       	rjmp	.-52     	; 0xbe2 <conv_brk+0x94>
     c16:	31 50       	subi	r19, 0x01	; 1
     c18:	e4 cf       	rjmp	.-56     	; 0xbe2 <conv_brk+0x94>
     c1a:	71 e0       	ldi	r23, 0x01	; 1
     c1c:	4f 5f       	subi	r20, 0xFF	; 255
     c1e:	5f 4f       	sbci	r21, 0xFF	; 255
     c20:	bf cf       	rjmp	.-130    	; 0xba0 <conv_brk+0x52>
     c22:	33 23       	and	r19, r19
     c24:	19 f0       	breq	.+6      	; 0xc2c <conv_brk+0xde>
     c26:	8e 81       	ldd	r24, Y+6	; 0x06
     c28:	80 62       	ori	r24, 0x20	; 32
     c2a:	8e 83       	std	Y+6, r24	; 0x06
     c2c:	77 23       	and	r23, r23
     c2e:	59 f0       	breq	.+22     	; 0xc46 <conv_brk+0xf8>
     c30:	fe 01       	movw	r30, r28
     c32:	31 96       	adiw	r30, 0x01	; 1
     c34:	9e 01       	movw	r18, r28
     c36:	2f 5d       	subi	r18, 0xDF	; 223
     c38:	3f 4f       	sbci	r19, 0xFF	; 255
     c3a:	80 81       	ld	r24, Z
     c3c:	80 95       	com	r24
     c3e:	81 93       	st	Z+, r24
     c40:	e2 17       	cp	r30, r18
     c42:	f3 07       	cpc	r31, r19
     c44:	d1 f7       	brne	.-12     	; 0xc3a <conv_brk+0xec>
     c46:	99 24       	eor	r9, r9
     c48:	93 94       	inc	r9
     c4a:	3e 01       	movw	r6, r28
     c4c:	08 94       	sec
     c4e:	61 1c       	adc	r6, r1
     c50:	71 1c       	adc	r7, r1
     c52:	c5 01       	movw	r24, r10
     c54:	0e 94 ae 11 	call	0x235c	; 0x235c <fgetc>
     c58:	ac 01       	movw	r20, r24
     c5a:	97 fd       	sbrc	r25, 7
     c5c:	25 c0       	rjmp	.+74     	; 0xca8 <conv_brk+0x15a>
     c5e:	86 95       	lsr	r24
     c60:	86 95       	lsr	r24
     c62:	86 95       	lsr	r24
     c64:	f3 01       	movw	r30, r6
     c66:	e8 0f       	add	r30, r24
     c68:	f1 1d       	adc	r31, r1
     c6a:	80 81       	ld	r24, Z
     c6c:	90 e0       	ldi	r25, 0x00	; 0
     c6e:	9a 01       	movw	r18, r20
     c70:	27 70       	andi	r18, 0x07	; 7
     c72:	30 70       	andi	r19, 0x00	; 0
     c74:	02 c0       	rjmp	.+4      	; 0xc7a <conv_brk+0x12c>
     c76:	95 95       	asr	r25
     c78:	87 95       	ror	r24
     c7a:	2a 95       	dec	r18
     c7c:	e2 f7       	brpl	.-8      	; 0xc76 <conv_brk+0x128>
     c7e:	80 fd       	sbrc	r24, 0
     c80:	05 c0       	rjmp	.+10     	; 0xc8c <conv_brk+0x13e>
     c82:	ca 01       	movw	r24, r20
     c84:	b5 01       	movw	r22, r10
     c86:	0e 94 7d 12 	call	0x24fa	; 0x24fa <ungetc>
     c8a:	0e c0       	rjmp	.+28     	; 0xca8 <conv_brk+0x15a>
     c8c:	01 15       	cp	r16, r1
     c8e:	11 05       	cpc	r17, r1
     c90:	19 f0       	breq	.+6      	; 0xc98 <conv_brk+0x14a>
     c92:	d8 01       	movw	r26, r16
     c94:	4d 93       	st	X+, r20
     c96:	8d 01       	movw	r16, r26
     c98:	08 94       	sec
     c9a:	c1 08       	sbc	r12, r1
     c9c:	d1 08       	sbc	r13, r1
     c9e:	99 24       	eor	r9, r9
     ca0:	c1 14       	cp	r12, r1
     ca2:	d1 04       	cpc	r13, r1
     ca4:	b1 f6       	brne	.-84     	; 0xc52 <conv_brk+0x104>
     ca6:	02 c0       	rjmp	.+4      	; 0xcac <conv_brk+0x15e>
     ca8:	99 20       	and	r9, r9
     caa:	31 f4       	brne	.+12     	; 0xcb8 <conv_brk+0x16a>
     cac:	01 15       	cp	r16, r1
     cae:	11 05       	cpc	r17, r1
     cb0:	29 f0       	breq	.+10     	; 0xcbc <conv_brk+0x16e>
     cb2:	f8 01       	movw	r30, r16
     cb4:	10 82       	st	Z, r1
     cb6:	02 c0       	rjmp	.+4      	; 0xcbc <conv_brk+0x16e>
     cb8:	ee 24       	eor	r14, r14
     cba:	ff 24       	eor	r15, r15
     cbc:	c7 01       	movw	r24, r14
     cbe:	a0 96       	adiw	r28, 0x20	; 32
     cc0:	0f b6       	in	r0, 0x3f	; 63
     cc2:	f8 94       	cli
     cc4:	de bf       	out	0x3e, r29	; 62
     cc6:	0f be       	out	0x3f, r0	; 63
     cc8:	cd bf       	out	0x3d, r28	; 61
     cca:	cf 91       	pop	r28
     ccc:	df 91       	pop	r29
     cce:	1f 91       	pop	r17
     cd0:	0f 91       	pop	r16
     cd2:	ff 90       	pop	r15
     cd4:	ef 90       	pop	r14
     cd6:	df 90       	pop	r13
     cd8:	cf 90       	pop	r12
     cda:	bf 90       	pop	r11
     cdc:	af 90       	pop	r10
     cde:	9f 90       	pop	r9
     ce0:	8f 90       	pop	r8
     ce2:	7f 90       	pop	r7
     ce4:	6f 90       	pop	r6
     ce6:	08 95       	ret

00000ce8 <conv_flt>:
     ce8:	2f 92       	push	r2
     cea:	3f 92       	push	r3
     cec:	5f 92       	push	r5
     cee:	6f 92       	push	r6
     cf0:	7f 92       	push	r7
     cf2:	8f 92       	push	r8
     cf4:	9f 92       	push	r9
     cf6:	af 92       	push	r10
     cf8:	bf 92       	push	r11
     cfa:	cf 92       	push	r12
     cfc:	df 92       	push	r13
     cfe:	ef 92       	push	r14
     d00:	ff 92       	push	r15
     d02:	0f 93       	push	r16
     d04:	1f 93       	push	r17
     d06:	cf 93       	push	r28
     d08:	df 93       	push	r29
     d0a:	3c 01       	movw	r6, r24
     d0c:	7b 01       	movw	r14, r22
     d0e:	1a 01       	movw	r2, r20
     d10:	0e 94 ae 11 	call	0x235c	; 0x235c <fgetc>
     d14:	ec 01       	movw	r28, r24
     d16:	8b 32       	cpi	r24, 0x2B	; 43
     d18:	39 f0       	breq	.+14     	; 0xd28 <conv_flt+0x40>
     d1a:	8d 32       	cpi	r24, 0x2D	; 45
     d1c:	11 f0       	breq	.+4      	; 0xd22 <conv_flt+0x3a>
     d1e:	55 24       	eor	r5, r5
     d20:	11 c0       	rjmp	.+34     	; 0xd44 <conv_flt+0x5c>
     d22:	b0 e8       	ldi	r27, 0x80	; 128
     d24:	5b 2e       	mov	r5, r27
     d26:	01 c0       	rjmp	.+2      	; 0xd2a <conv_flt+0x42>
     d28:	55 24       	eor	r5, r5
     d2a:	08 94       	sec
     d2c:	e1 08       	sbc	r14, r1
     d2e:	f1 08       	sbc	r15, r1
     d30:	e1 14       	cp	r14, r1
     d32:	f1 04       	cpc	r15, r1
     d34:	09 f4       	brne	.+2      	; 0xd38 <conv_flt+0x50>
     d36:	14 c1       	rjmp	.+552    	; 0xf60 <conv_flt+0x278>
     d38:	c3 01       	movw	r24, r6
     d3a:	0e 94 ae 11 	call	0x235c	; 0x235c <fgetc>
     d3e:	ec 01       	movw	r28, r24
     d40:	97 fd       	sbrc	r25, 7
     d42:	0e c1       	rjmp	.+540    	; 0xf60 <conv_flt+0x278>
     d44:	ce 01       	movw	r24, r28
     d46:	0e 94 85 11 	call	0x230a	; 0x230a <tolower>
     d4a:	89 36       	cpi	r24, 0x69	; 105
     d4c:	91 05       	cpc	r25, r1
     d4e:	21 f0       	breq	.+8      	; 0xd58 <conv_flt+0x70>
     d50:	8e 36       	cpi	r24, 0x6E	; 110
     d52:	91 05       	cpc	r25, r1
     d54:	99 f5       	brne	.+102    	; 0xdbc <conv_flt+0xd4>
     d56:	1d c0       	rjmp	.+58     	; 0xd92 <conv_flt+0xaa>
     d58:	09 ea       	ldi	r16, 0xA9	; 169
     d5a:	10 e0       	ldi	r17, 0x00	; 0
     d5c:	1c c0       	rjmp	.+56     	; 0xd96 <conv_flt+0xae>
     d5e:	08 94       	sec
     d60:	e1 08       	sbc	r14, r1
     d62:	f1 08       	sbc	r15, r1
     d64:	e1 14       	cp	r14, r1
     d66:	f1 04       	cpc	r15, r1
     d68:	71 f0       	breq	.+28     	; 0xd86 <conv_flt+0x9e>
     d6a:	c3 01       	movw	r24, r6
     d6c:	0e 94 ae 11 	call	0x235c	; 0x235c <fgetc>
     d70:	ec 01       	movw	r28, r24
     d72:	97 fd       	sbrc	r25, 7
     d74:	08 c0       	rjmp	.+16     	; 0xd86 <conv_flt+0x9e>
     d76:	0e 94 85 11 	call	0x230a	; 0x230a <tolower>
     d7a:	d8 16       	cp	r13, r24
     d7c:	61 f0       	breq	.+24     	; 0xd96 <conv_flt+0xae>
     d7e:	ce 01       	movw	r24, r28
     d80:	b3 01       	movw	r22, r6
     d82:	0e 94 7d 12 	call	0x24fa	; 0x24fa <ungetc>
     d86:	20 e0       	ldi	r18, 0x00	; 0
     d88:	0c 3a       	cpi	r16, 0xAC	; 172
     d8a:	12 07       	cpc	r17, r18
     d8c:	09 f0       	breq	.+2      	; 0xd90 <conv_flt+0xa8>
     d8e:	e8 c0       	rjmp	.+464    	; 0xf60 <conv_flt+0x278>
     d90:	08 c0       	rjmp	.+16     	; 0xda2 <conv_flt+0xba>
     d92:	06 ea       	ldi	r16, 0xA6	; 166
     d94:	10 e0       	ldi	r17, 0x00	; 0
     d96:	f8 01       	movw	r30, r16
     d98:	0f 5f       	subi	r16, 0xFF	; 255
     d9a:	1f 4f       	sbci	r17, 0xFF	; 255
     d9c:	d4 90       	lpm	r13, Z+
     d9e:	dd 20       	and	r13, r13
     da0:	f1 f6       	brne	.-68     	; 0xd5e <conv_flt+0x76>
     da2:	09 5a       	subi	r16, 0xA9	; 169
     da4:	10 40       	sbci	r17, 0x00	; 0
     da6:	29 f0       	breq	.+10     	; 0xdb2 <conv_flt+0xca>
     da8:	80 e0       	ldi	r24, 0x00	; 0
     daa:	90 e0       	ldi	r25, 0x00	; 0
     dac:	a0 e8       	ldi	r26, 0x80	; 128
     dae:	bf e7       	ldi	r27, 0x7F	; 127
     db0:	cb c0       	rjmp	.+406    	; 0xf48 <conv_flt+0x260>
     db2:	80 e0       	ldi	r24, 0x00	; 0
     db4:	90 e0       	ldi	r25, 0x00	; 0
     db6:	a0 ec       	ldi	r26, 0xC0	; 192
     db8:	bf e7       	ldi	r27, 0x7F	; 127
     dba:	c6 c0       	rjmp	.+396    	; 0xf48 <conv_flt+0x260>
     dbc:	cc 24       	eor	r12, r12
     dbe:	dd 24       	eor	r13, r13
     dc0:	88 24       	eor	r8, r8
     dc2:	99 24       	eor	r9, r9
     dc4:	54 01       	movw	r10, r8
     dc6:	ae 01       	movw	r20, r28
     dc8:	40 53       	subi	r20, 0x30	; 48
     dca:	24 2f       	mov	r18, r20
     dcc:	4a 30       	cpi	r20, 0x0A	; 10
     dce:	30 f5       	brcc	.+76     	; 0xe1c <conv_flt+0x134>
     dd0:	52 e0       	ldi	r21, 0x02	; 2
     dd2:	55 2a       	or	r5, r21
     dd4:	85 2d       	mov	r24, r5
     dd6:	90 e0       	ldi	r25, 0x00	; 0
     dd8:	ac 01       	movw	r20, r24
     dda:	48 70       	andi	r20, 0x08	; 8
     ddc:	50 70       	andi	r21, 0x00	; 0
     dde:	52 fe       	sbrs	r5, 2
     de0:	06 c0       	rjmp	.+12     	; 0xdee <conv_flt+0x106>
     de2:	45 2b       	or	r20, r21
     de4:	09 f5       	brne	.+66     	; 0xe28 <conv_flt+0x140>
     de6:	08 94       	sec
     de8:	c1 1c       	adc	r12, r1
     dea:	d1 1c       	adc	r13, r1
     dec:	1d c0       	rjmp	.+58     	; 0xe28 <conv_flt+0x140>
     dee:	45 2b       	or	r20, r21
     df0:	19 f0       	breq	.+6      	; 0xdf8 <conv_flt+0x110>
     df2:	08 94       	sec
     df4:	c1 08       	sbc	r12, r1
     df6:	d1 08       	sbc	r13, r1
     df8:	c5 01       	movw	r24, r10
     dfa:	b4 01       	movw	r22, r8
     dfc:	40 e2       	ldi	r20, 0x20	; 32
     dfe:	ce dd       	rcall	.-1124   	; 0x99c <mulacc>
     e00:	4b 01       	movw	r8, r22
     e02:	5c 01       	movw	r10, r24
     e04:	88 e9       	ldi	r24, 0x98	; 152
     e06:	88 16       	cp	r8, r24
     e08:	89 e9       	ldi	r24, 0x99	; 153
     e0a:	98 06       	cpc	r9, r24
     e0c:	89 e9       	ldi	r24, 0x99	; 153
     e0e:	a8 06       	cpc	r10, r24
     e10:	89 e1       	ldi	r24, 0x19	; 25
     e12:	b8 06       	cpc	r11, r24
     e14:	48 f0       	brcs	.+18     	; 0xe28 <conv_flt+0x140>
     e16:	94 e0       	ldi	r25, 0x04	; 4
     e18:	59 2a       	or	r5, r25
     e1a:	06 c0       	rjmp	.+12     	; 0xe28 <conv_flt+0x140>
     e1c:	4e 3f       	cpi	r20, 0xFE	; 254
     e1e:	81 f4       	brne	.+32     	; 0xe40 <conv_flt+0x158>
     e20:	53 fc       	sbrc	r5, 3
     e22:	0e c0       	rjmp	.+28     	; 0xe40 <conv_flt+0x158>
     e24:	e8 e0       	ldi	r30, 0x08	; 8
     e26:	5e 2a       	or	r5, r30
     e28:	08 94       	sec
     e2a:	e1 08       	sbc	r14, r1
     e2c:	f1 08       	sbc	r15, r1
     e2e:	e1 14       	cp	r14, r1
     e30:	f1 04       	cpc	r15, r1
     e32:	31 f0       	breq	.+12     	; 0xe40 <conv_flt+0x158>
     e34:	c3 01       	movw	r24, r6
     e36:	0e 94 ae 11 	call	0x235c	; 0x235c <fgetc>
     e3a:	ec 01       	movw	r28, r24
     e3c:	97 ff       	sbrs	r25, 7
     e3e:	c3 cf       	rjmp	.-122    	; 0xdc6 <conv_flt+0xde>
     e40:	51 fe       	sbrs	r5, 1
     e42:	8e c0       	rjmp	.+284    	; 0xf60 <conv_flt+0x278>
     e44:	c5 36       	cpi	r28, 0x65	; 101
     e46:	19 f0       	breq	.+6      	; 0xe4e <conv_flt+0x166>
     e48:	c5 34       	cpi	r28, 0x45	; 69
     e4a:	09 f0       	breq	.+2      	; 0xe4e <conv_flt+0x166>
     e4c:	45 c0       	rjmp	.+138    	; 0xed8 <conv_flt+0x1f0>
     e4e:	08 94       	sec
     e50:	e1 08       	sbc	r14, r1
     e52:	f1 08       	sbc	r15, r1
     e54:	e1 14       	cp	r14, r1
     e56:	f1 04       	cpc	r15, r1
     e58:	09 f4       	brne	.+2      	; 0xe5c <conv_flt+0x174>
     e5a:	82 c0       	rjmp	.+260    	; 0xf60 <conv_flt+0x278>
     e5c:	c3 01       	movw	r24, r6
     e5e:	0e 94 ae 11 	call	0x235c	; 0x235c <fgetc>
     e62:	ec 01       	movw	r28, r24
     e64:	97 fd       	sbrc	r25, 7
     e66:	7c c0       	rjmp	.+248    	; 0xf60 <conv_flt+0x278>
     e68:	8b 32       	cpi	r24, 0x2B	; 43
     e6a:	21 f0       	breq	.+8      	; 0xe74 <conv_flt+0x18c>
     e6c:	8d 32       	cpi	r24, 0x2D	; 45
     e6e:	69 f4       	brne	.+26     	; 0xe8a <conv_flt+0x1a2>
     e70:	f0 e1       	ldi	r31, 0x10	; 16
     e72:	5f 2a       	or	r5, r31
     e74:	08 94       	sec
     e76:	e1 08       	sbc	r14, r1
     e78:	f1 08       	sbc	r15, r1
     e7a:	e1 14       	cp	r14, r1
     e7c:	f1 04       	cpc	r15, r1
     e7e:	09 f4       	brne	.+2      	; 0xe82 <conv_flt+0x19a>
     e80:	6f c0       	rjmp	.+222    	; 0xf60 <conv_flt+0x278>
     e82:	c3 01       	movw	r24, r6
     e84:	0e 94 ae 11 	call	0x235c	; 0x235c <fgetc>
     e88:	ec 01       	movw	r28, r24
     e8a:	ce 01       	movw	r24, r28
     e8c:	c0 97       	sbiw	r24, 0x30	; 48
     e8e:	0a 97       	sbiw	r24, 0x0a	; 10
     e90:	08 f0       	brcs	.+2      	; 0xe94 <conv_flt+0x1ac>
     e92:	66 c0       	rjmp	.+204    	; 0xf60 <conv_flt+0x278>
     e94:	00 e0       	ldi	r16, 0x00	; 0
     e96:	10 e0       	ldi	r17, 0x00	; 0
     e98:	b8 01       	movw	r22, r16
     e9a:	88 27       	eor	r24, r24
     e9c:	77 fd       	sbrc	r23, 7
     e9e:	80 95       	com	r24
     ea0:	98 2f       	mov	r25, r24
     ea2:	ae 01       	movw	r20, r28
     ea4:	40 53       	subi	r20, 0x30	; 48
     ea6:	24 2f       	mov	r18, r20
     ea8:	40 e2       	ldi	r20, 0x20	; 32
     eaa:	78 dd       	rcall	.-1296   	; 0x99c <mulacc>
     eac:	8b 01       	movw	r16, r22
     eae:	08 94       	sec
     eb0:	e1 08       	sbc	r14, r1
     eb2:	f1 08       	sbc	r15, r1
     eb4:	e1 14       	cp	r14, r1
     eb6:	f1 04       	cpc	r15, r1
     eb8:	39 f0       	breq	.+14     	; 0xec8 <conv_flt+0x1e0>
     eba:	c3 01       	movw	r24, r6
     ebc:	0e 94 ae 11 	call	0x235c	; 0x235c <fgetc>
     ec0:	ec 01       	movw	r28, r24
     ec2:	c0 97       	sbiw	r24, 0x30	; 48
     ec4:	0a 97       	sbiw	r24, 0x0a	; 10
     ec6:	40 f3       	brcs	.-48     	; 0xe98 <conv_flt+0x1b0>
     ec8:	b8 01       	movw	r22, r16
     eca:	54 fe       	sbrs	r5, 4
     ecc:	03 c0       	rjmp	.+6      	; 0xed4 <conv_flt+0x1ec>
     ece:	70 95       	com	r23
     ed0:	61 95       	neg	r22
     ed2:	7f 4f       	sbci	r23, 0xFF	; 255
     ed4:	c6 0e       	add	r12, r22
     ed6:	d7 1e       	adc	r13, r23
     ed8:	ef 28       	or	r14, r15
     eda:	31 f0       	breq	.+12     	; 0xee8 <conv_flt+0x200>
     edc:	d7 fd       	sbrc	r29, 7
     ede:	04 c0       	rjmp	.+8      	; 0xee8 <conv_flt+0x200>
     ee0:	ce 01       	movw	r24, r28
     ee2:	b3 01       	movw	r22, r6
     ee4:	0e 94 7d 12 	call	0x24fa	; 0x24fa <ungetc>
     ee8:	c5 01       	movw	r24, r10
     eea:	b4 01       	movw	r22, r8
     eec:	84 d1       	rcall	.+776    	; 0x11f6 <__floatunsisf>
     eee:	d7 fe       	sbrs	r13, 7
     ef0:	0d c0       	rjmp	.+26     	; 0xf0c <conv_flt+0x224>
     ef2:	a5 ec       	ldi	r26, 0xC5	; 197
     ef4:	ea 2e       	mov	r14, r26
     ef6:	a0 e0       	ldi	r26, 0x00	; 0
     ef8:	fa 2e       	mov	r15, r26
     efa:	d0 94       	com	r13
     efc:	c1 94       	neg	r12
     efe:	d1 08       	sbc	r13, r1
     f00:	d3 94       	inc	r13
     f02:	c0 e2       	ldi	r28, 0x20	; 32
     f04:	d0 e0       	ldi	r29, 0x00	; 0
     f06:	00 e0       	ldi	r16, 0x00	; 0
     f08:	10 e0       	ldi	r17, 0x00	; 0
     f0a:	0d c0       	rjmp	.+26     	; 0xf26 <conv_flt+0x23e>
     f0c:	fd ed       	ldi	r31, 0xDD	; 221
     f0e:	ef 2e       	mov	r14, r31
     f10:	f0 e0       	ldi	r31, 0x00	; 0
     f12:	ff 2e       	mov	r15, r31
     f14:	f6 cf       	rjmp	.-20     	; 0xf02 <conv_flt+0x21a>
     f16:	f7 01       	movw	r30, r14
     f18:	25 91       	lpm	r18, Z+
     f1a:	35 91       	lpm	r19, Z+
     f1c:	45 91       	lpm	r20, Z+
     f1e:	54 91       	lpm	r21, Z+
     f20:	a7 d1       	rcall	.+846    	; 0x1270 <__mulsf3>
     f22:	cc 1a       	sub	r12, r28
     f24:	dd 0a       	sbc	r13, r29
     f26:	cc 16       	cp	r12, r28
     f28:	dd 06       	cpc	r13, r29
     f2a:	a8 f7       	brcc	.-22     	; 0xf16 <conv_flt+0x22e>
     f2c:	d6 95       	lsr	r29
     f2e:	c7 95       	ror	r28
     f30:	0f 5f       	subi	r16, 0xFF	; 255
     f32:	1f 4f       	sbci	r17, 0xFF	; 255
     f34:	06 30       	cpi	r16, 0x06	; 6
     f36:	11 05       	cpc	r17, r1
     f38:	29 f0       	breq	.+10     	; 0xf44 <conv_flt+0x25c>
     f3a:	ec ef       	ldi	r30, 0xFC	; 252
     f3c:	ff ef       	ldi	r31, 0xFF	; 255
     f3e:	ee 0e       	add	r14, r30
     f40:	ff 1e       	adc	r15, r31
     f42:	f1 cf       	rjmp	.-30     	; 0xf26 <conv_flt+0x23e>
     f44:	dc 01       	movw	r26, r24
     f46:	cb 01       	movw	r24, r22
     f48:	57 fc       	sbrc	r5, 7
     f4a:	b0 58       	subi	r27, 0x80	; 128
     f4c:	21 14       	cp	r2, r1
     f4e:	31 04       	cpc	r3, r1
     f50:	29 f0       	breq	.+10     	; 0xf5c <conv_flt+0x274>
     f52:	f1 01       	movw	r30, r2
     f54:	80 83       	st	Z, r24
     f56:	91 83       	std	Z+1, r25	; 0x01
     f58:	a2 83       	std	Z+2, r26	; 0x02
     f5a:	b3 83       	std	Z+3, r27	; 0x03
     f5c:	81 e0       	ldi	r24, 0x01	; 1
     f5e:	01 c0       	rjmp	.+2      	; 0xf62 <conv_flt+0x27a>
     f60:	80 e0       	ldi	r24, 0x00	; 0
     f62:	df 91       	pop	r29
     f64:	cf 91       	pop	r28
     f66:	1f 91       	pop	r17
     f68:	0f 91       	pop	r16
     f6a:	ff 90       	pop	r15
     f6c:	ef 90       	pop	r14
     f6e:	df 90       	pop	r13
     f70:	cf 90       	pop	r12
     f72:	bf 90       	pop	r11
     f74:	af 90       	pop	r10
     f76:	9f 90       	pop	r9
     f78:	8f 90       	pop	r8
     f7a:	7f 90       	pop	r7
     f7c:	6f 90       	pop	r6
     f7e:	5f 90       	pop	r5
     f80:	3f 90       	pop	r3
     f82:	2f 90       	pop	r2
     f84:	08 95       	ret

00000f86 <vfscanf>:
     f86:	5f 92       	push	r5
     f88:	6f 92       	push	r6
     f8a:	7f 92       	push	r7
     f8c:	8f 92       	push	r8
     f8e:	9f 92       	push	r9
     f90:	af 92       	push	r10
     f92:	bf 92       	push	r11
     f94:	cf 92       	push	r12
     f96:	df 92       	push	r13
     f98:	ef 92       	push	r14
     f9a:	ff 92       	push	r15
     f9c:	0f 93       	push	r16
     f9e:	1f 93       	push	r17
     fa0:	cf 93       	push	r28
     fa2:	df 93       	push	r29
     fa4:	4c 01       	movw	r8, r24
     fa6:	5b 01       	movw	r10, r22
     fa8:	3a 01       	movw	r6, r20
     faa:	fc 01       	movw	r30, r24
     fac:	17 82       	std	Z+7, r1	; 0x07
     fae:	16 82       	std	Z+6, r1	; 0x06
     fb0:	55 24       	eor	r5, r5
     fb2:	fd c0       	rjmp	.+506    	; 0x11ae <__stack+0xaf>
     fb4:	81 2f       	mov	r24, r17
     fb6:	90 e0       	ldi	r25, 0x00	; 0
     fb8:	0e 94 7d 11 	call	0x22fa	; 0x22fa <isspace>
     fbc:	89 2b       	or	r24, r25
     fbe:	19 f0       	breq	.+6      	; 0xfc6 <vfscanf+0x40>
     fc0:	c4 01       	movw	r24, r8
     fc2:	1a dd       	rcall	.-1484   	; 0x9f8 <skip_spaces>
     fc4:	f4 c0       	rjmp	.+488    	; 0x11ae <__stack+0xaf>
     fc6:	15 32       	cpi	r17, 0x25	; 37
     fc8:	49 f4       	brne	.+18     	; 0xfdc <vfscanf+0x56>
     fca:	f5 01       	movw	r30, r10
     fcc:	f3 fc       	sbrc	r15, 3
     fce:	65 91       	lpm	r22, Z+
     fd0:	f3 fe       	sbrs	r15, 3
     fd2:	61 91       	ld	r22, Z+
     fd4:	5f 01       	movw	r10, r30
     fd6:	65 32       	cpi	r22, 0x25	; 37
     fd8:	69 f4       	brne	.+26     	; 0xff4 <vfscanf+0x6e>
     fda:	15 e2       	ldi	r17, 0x25	; 37
     fdc:	c4 01       	movw	r24, r8
     fde:	0e 94 ae 11 	call	0x235c	; 0x235c <fgetc>
     fe2:	97 fd       	sbrc	r25, 7
     fe4:	f0 c0       	rjmp	.+480    	; 0x11c6 <__stack+0xc7>
     fe6:	18 17       	cp	r17, r24
     fe8:	09 f4       	brne	.+2      	; 0xfec <vfscanf+0x66>
     fea:	e1 c0       	rjmp	.+450    	; 0x11ae <__stack+0xaf>
     fec:	b4 01       	movw	r22, r8
     fee:	0e 94 7d 12 	call	0x24fa	; 0x24fa <ungetc>
     ff2:	ee c0       	rjmp	.+476    	; 0x11d0 <__stack+0xd1>
     ff4:	6a 32       	cpi	r22, 0x2A	; 42
     ff6:	19 f0       	breq	.+6      	; 0xffe <vfscanf+0x78>
     ff8:	16 2f       	mov	r17, r22
     ffa:	00 e0       	ldi	r16, 0x00	; 0
     ffc:	06 c0       	rjmp	.+12     	; 0x100a <vfscanf+0x84>
     ffe:	f3 fc       	sbrc	r15, 3
    1000:	15 91       	lpm	r17, Z+
    1002:	f3 fe       	sbrs	r15, 3
    1004:	11 91       	ld	r17, Z+
    1006:	5f 01       	movw	r10, r30
    1008:	01 e0       	ldi	r16, 0x01	; 1
    100a:	cc 24       	eor	r12, r12
    100c:	dd 24       	eor	r13, r13
    100e:	0d c0       	rjmp	.+26     	; 0x102a <vfscanf+0xa4>
    1010:	02 60       	ori	r16, 0x02	; 2
    1012:	b6 01       	movw	r22, r12
    1014:	80 e0       	ldi	r24, 0x00	; 0
    1016:	90 e0       	ldi	r25, 0x00	; 0
    1018:	40 e2       	ldi	r20, 0x20	; 32
    101a:	c0 dc       	rcall	.-1664   	; 0x99c <mulacc>
    101c:	6b 01       	movw	r12, r22
    101e:	f5 01       	movw	r30, r10
    1020:	f3 fc       	sbrc	r15, 3
    1022:	15 91       	lpm	r17, Z+
    1024:	f3 fe       	sbrs	r15, 3
    1026:	11 91       	ld	r17, Z+
    1028:	5f 01       	movw	r10, r30
    102a:	21 2f       	mov	r18, r17
    102c:	20 53       	subi	r18, 0x30	; 48
    102e:	2a 30       	cpi	r18, 0x0A	; 10
    1030:	78 f3       	brcs	.-34     	; 0x1010 <vfscanf+0x8a>
    1032:	01 fd       	sbrc	r16, 1
    1034:	04 c0       	rjmp	.+8      	; 0x103e <vfscanf+0xb8>
    1036:	cc 24       	eor	r12, r12
    1038:	ca 94       	dec	r12
    103a:	dc 2c       	mov	r13, r12
    103c:	04 c0       	rjmp	.+8      	; 0x1046 <vfscanf+0xc0>
    103e:	c1 14       	cp	r12, r1
    1040:	d1 04       	cpc	r13, r1
    1042:	09 f4       	brne	.+2      	; 0x1046 <vfscanf+0xc0>
    1044:	c5 c0       	rjmp	.+394    	; 0x11d0 <__stack+0xd1>
    1046:	18 36       	cpi	r17, 0x68	; 104
    1048:	21 f0       	breq	.+8      	; 0x1052 <vfscanf+0xcc>
    104a:	1c 36       	cpi	r17, 0x6C	; 108
    104c:	99 f4       	brne	.+38     	; 0x1074 <vfscanf+0xee>
    104e:	f5 01       	movw	r30, r10
    1050:	0b c0       	rjmp	.+22     	; 0x1068 <vfscanf+0xe2>
    1052:	f5 01       	movw	r30, r10
    1054:	f3 fc       	sbrc	r15, 3
    1056:	65 91       	lpm	r22, Z+
    1058:	f3 fe       	sbrs	r15, 3
    105a:	61 91       	ld	r22, Z+
    105c:	68 36       	cpi	r22, 0x68	; 104
    105e:	19 f0       	breq	.+6      	; 0x1066 <vfscanf+0xe0>
    1060:	5f 01       	movw	r10, r30
    1062:	16 2f       	mov	r17, r22
    1064:	07 c0       	rjmp	.+14     	; 0x1074 <vfscanf+0xee>
    1066:	08 60       	ori	r16, 0x08	; 8
    1068:	04 60       	ori	r16, 0x04	; 4
    106a:	f3 fc       	sbrc	r15, 3
    106c:	15 91       	lpm	r17, Z+
    106e:	f3 fe       	sbrs	r15, 3
    1070:	11 91       	ld	r17, Z+
    1072:	5f 01       	movw	r10, r30
    1074:	11 23       	and	r17, r17
    1076:	09 f4       	brne	.+2      	; 0x107a <vfscanf+0xf4>
    1078:	ab c0       	rjmp	.+342    	; 0x11d0 <__stack+0xd1>
    107a:	84 e9       	ldi	r24, 0x94	; 148
    107c:	90 e0       	ldi	r25, 0x00	; 0
    107e:	61 2f       	mov	r22, r17
    1080:	70 e0       	ldi	r23, 0x00	; 0
    1082:	0e 94 8d 11 	call	0x231a	; 0x231a <strchr_P>
    1086:	89 2b       	or	r24, r25
    1088:	09 f4       	brne	.+2      	; 0x108c <vfscanf+0x106>
    108a:	a2 c0       	rjmp	.+324    	; 0x11d0 <__stack+0xd1>
    108c:	80 2f       	mov	r24, r16
    108e:	00 ff       	sbrs	r16, 0
    1090:	03 c0       	rjmp	.+6      	; 0x1098 <vfscanf+0x112>
    1092:	ee 24       	eor	r14, r14
    1094:	ff 24       	eor	r15, r15
    1096:	07 c0       	rjmp	.+14     	; 0x10a6 <vfscanf+0x120>
    1098:	f3 01       	movw	r30, r6
    109a:	e0 80       	ld	r14, Z
    109c:	f1 80       	ldd	r15, Z+1	; 0x01
    109e:	22 e0       	ldi	r18, 0x02	; 2
    10a0:	30 e0       	ldi	r19, 0x00	; 0
    10a2:	62 0e       	add	r6, r18
    10a4:	73 1e       	adc	r7, r19
    10a6:	1e 36       	cpi	r17, 0x6E	; 110
    10a8:	49 f4       	brne	.+18     	; 0x10bc <vfscanf+0x136>
    10aa:	f4 01       	movw	r30, r8
    10ac:	46 81       	ldd	r20, Z+6	; 0x06
    10ae:	57 81       	ldd	r21, Z+7	; 0x07
    10b0:	60 e0       	ldi	r22, 0x00	; 0
    10b2:	70 e0       	ldi	r23, 0x00	; 0
    10b4:	c7 01       	movw	r24, r14
    10b6:	20 2f       	mov	r18, r16
    10b8:	65 dc       	rcall	.-1846   	; 0x984 <putval>
    10ba:	79 c0       	rjmp	.+242    	; 0x11ae <__stack+0xaf>
    10bc:	13 36       	cpi	r17, 0x63	; 99
    10be:	b9 f4       	brne	.+46     	; 0x10ee <vfscanf+0x168>
    10c0:	81 fd       	sbrc	r24, 1
    10c2:	03 c0       	rjmp	.+6      	; 0x10ca <vfscanf+0x144>
    10c4:	11 e0       	ldi	r17, 0x01	; 1
    10c6:	c1 2e       	mov	r12, r17
    10c8:	d1 2c       	mov	r13, r1
    10ca:	c4 01       	movw	r24, r8
    10cc:	0e 94 ae 11 	call	0x235c	; 0x235c <fgetc>
    10d0:	97 fd       	sbrc	r25, 7
    10d2:	79 c0       	rjmp	.+242    	; 0x11c6 <__stack+0xc7>
    10d4:	e1 14       	cp	r14, r1
    10d6:	f1 04       	cpc	r15, r1
    10d8:	19 f0       	breq	.+6      	; 0x10e0 <vfscanf+0x15a>
    10da:	f7 01       	movw	r30, r14
    10dc:	81 93       	st	Z+, r24
    10de:	7f 01       	movw	r14, r30
    10e0:	08 94       	sec
    10e2:	c1 08       	sbc	r12, r1
    10e4:	d1 08       	sbc	r13, r1
    10e6:	c1 14       	cp	r12, r1
    10e8:	d1 04       	cpc	r13, r1
    10ea:	79 f7       	brne	.-34     	; 0x10ca <vfscanf+0x144>
    10ec:	5e c0       	rjmp	.+188    	; 0x11aa <__stack+0xab>
    10ee:	1b 35       	cpi	r17, 0x5B	; 91
    10f0:	51 f4       	brne	.+20     	; 0x1106 <__stack+0x7>
    10f2:	c4 01       	movw	r24, r8
    10f4:	b6 01       	movw	r22, r12
    10f6:	a7 01       	movw	r20, r14
    10f8:	95 01       	movw	r18, r10
    10fa:	29 dd       	rcall	.-1454   	; 0xb4e <conv_brk>
    10fc:	5c 01       	movw	r10, r24
    10fe:	00 97       	sbiw	r24, 0x00	; 0
    1100:	09 f0       	breq	.+2      	; 0x1104 <__stack+0x5>
    1102:	53 c0       	rjmp	.+166    	; 0x11aa <__stack+0xab>
    1104:	4d c0       	rjmp	.+154    	; 0x11a0 <__stack+0xa1>
    1106:	c4 01       	movw	r24, r8
    1108:	77 dc       	rcall	.-1810   	; 0x9f8 <skip_spaces>
    110a:	97 fd       	sbrc	r25, 7
    110c:	5c c0       	rjmp	.+184    	; 0x11c6 <__stack+0xc7>
    110e:	1f 36       	cpi	r17, 0x6F	; 111
    1110:	d1 f1       	breq	.+116    	; 0x1186 <__stack+0x87>
    1112:	10 37       	cpi	r17, 0x70	; 112
    1114:	38 f4       	brcc	.+14     	; 0x1124 <__stack+0x25>
    1116:	14 36       	cpi	r17, 0x64	; 100
    1118:	a1 f1       	breq	.+104    	; 0x1182 <__stack+0x83>
    111a:	19 36       	cpi	r17, 0x69	; 105
    111c:	a9 f1       	breq	.+106    	; 0x1188 <__stack+0x89>
    111e:	18 35       	cpi	r17, 0x58	; 88
    1120:	c9 f5       	brne	.+114    	; 0x1194 <__stack+0x95>
    1122:	2d c0       	rjmp	.+90     	; 0x117e <__stack+0x7f>
    1124:	13 37       	cpi	r17, 0x73	; 115
    1126:	51 f0       	breq	.+20     	; 0x113c <__stack+0x3d>
    1128:	14 37       	cpi	r17, 0x74	; 116
    112a:	18 f4       	brcc	.+6      	; 0x1132 <__stack+0x33>
    112c:	10 37       	cpi	r17, 0x70	; 112
    112e:	91 f5       	brne	.+100    	; 0x1194 <__stack+0x95>
    1130:	26 c0       	rjmp	.+76     	; 0x117e <__stack+0x7f>
    1132:	15 37       	cpi	r17, 0x75	; 117
    1134:	31 f1       	breq	.+76     	; 0x1182 <__stack+0x83>
    1136:	18 37       	cpi	r17, 0x78	; 120
    1138:	69 f5       	brne	.+90     	; 0x1194 <__stack+0x95>
    113a:	21 c0       	rjmp	.+66     	; 0x117e <__stack+0x7f>
    113c:	c4 01       	movw	r24, r8
    113e:	0e 94 ae 11 	call	0x235c	; 0x235c <fgetc>
    1142:	ec 01       	movw	r28, r24
    1144:	97 fd       	sbrc	r25, 7
    1146:	15 c0       	rjmp	.+42     	; 0x1172 <__stack+0x73>
    1148:	0e 94 7d 11 	call	0x22fa	; 0x22fa <isspace>
    114c:	89 2b       	or	r24, r25
    114e:	29 f0       	breq	.+10     	; 0x115a <__stack+0x5b>
    1150:	ce 01       	movw	r24, r28
    1152:	b4 01       	movw	r22, r8
    1154:	0e 94 7d 12 	call	0x24fa	; 0x24fa <ungetc>
    1158:	0c c0       	rjmp	.+24     	; 0x1172 <__stack+0x73>
    115a:	e1 14       	cp	r14, r1
    115c:	f1 04       	cpc	r15, r1
    115e:	19 f0       	breq	.+6      	; 0x1166 <__stack+0x67>
    1160:	f7 01       	movw	r30, r14
    1162:	c1 93       	st	Z+, r28
    1164:	7f 01       	movw	r14, r30
    1166:	08 94       	sec
    1168:	c1 08       	sbc	r12, r1
    116a:	d1 08       	sbc	r13, r1
    116c:	c1 14       	cp	r12, r1
    116e:	d1 04       	cpc	r13, r1
    1170:	29 f7       	brne	.-54     	; 0x113c <__stack+0x3d>
    1172:	e1 14       	cp	r14, r1
    1174:	f1 04       	cpc	r15, r1
    1176:	c9 f0       	breq	.+50     	; 0x11aa <__stack+0xab>
    1178:	f7 01       	movw	r30, r14
    117a:	10 82       	st	Z, r1
    117c:	16 c0       	rjmp	.+44     	; 0x11aa <__stack+0xab>
    117e:	00 64       	ori	r16, 0x40	; 64
    1180:	03 c0       	rjmp	.+6      	; 0x1188 <__stack+0x89>
    1182:	00 62       	ori	r16, 0x20	; 32
    1184:	01 c0       	rjmp	.+2      	; 0x1188 <__stack+0x89>
    1186:	00 61       	ori	r16, 0x10	; 16
    1188:	c4 01       	movw	r24, r8
    118a:	b6 01       	movw	r22, r12
    118c:	a7 01       	movw	r20, r14
    118e:	20 2f       	mov	r18, r16
    1190:	4c dc       	rcall	.-1896   	; 0xa2a <conv_int>
    1192:	04 c0       	rjmp	.+8      	; 0x119c <__stack+0x9d>
    1194:	c4 01       	movw	r24, r8
    1196:	b6 01       	movw	r22, r12
    1198:	a7 01       	movw	r20, r14
    119a:	a6 dd       	rcall	.-1204   	; 0xce8 <conv_flt>
    119c:	88 23       	and	r24, r24
    119e:	29 f4       	brne	.+10     	; 0x11aa <__stack+0xab>
    11a0:	f4 01       	movw	r30, r8
    11a2:	83 81       	ldd	r24, Z+3	; 0x03
    11a4:	80 73       	andi	r24, 0x30	; 48
    11a6:	79 f4       	brne	.+30     	; 0x11c6 <__stack+0xc7>
    11a8:	13 c0       	rjmp	.+38     	; 0x11d0 <__stack+0xd1>
    11aa:	00 ff       	sbrs	r16, 0
    11ac:	53 94       	inc	r5
    11ae:	f4 01       	movw	r30, r8
    11b0:	f3 80       	ldd	r15, Z+3	; 0x03
    11b2:	f5 01       	movw	r30, r10
    11b4:	f3 fc       	sbrc	r15, 3
    11b6:	15 91       	lpm	r17, Z+
    11b8:	f3 fe       	sbrs	r15, 3
    11ba:	11 91       	ld	r17, Z+
    11bc:	5f 01       	movw	r10, r30
    11be:	11 23       	and	r17, r17
    11c0:	09 f0       	breq	.+2      	; 0x11c4 <__stack+0xc5>
    11c2:	f8 ce       	rjmp	.-528    	; 0xfb4 <vfscanf+0x2e>
    11c4:	05 c0       	rjmp	.+10     	; 0x11d0 <__stack+0xd1>
    11c6:	55 20       	and	r5, r5
    11c8:	19 f4       	brne	.+6      	; 0x11d0 <__stack+0xd1>
    11ca:	2f ef       	ldi	r18, 0xFF	; 255
    11cc:	3f ef       	ldi	r19, 0xFF	; 255
    11ce:	02 c0       	rjmp	.+4      	; 0x11d4 <__stack+0xd5>
    11d0:	25 2d       	mov	r18, r5
    11d2:	30 e0       	ldi	r19, 0x00	; 0
    11d4:	c9 01       	movw	r24, r18
    11d6:	df 91       	pop	r29
    11d8:	cf 91       	pop	r28
    11da:	1f 91       	pop	r17
    11dc:	0f 91       	pop	r16
    11de:	ff 90       	pop	r15
    11e0:	ef 90       	pop	r14
    11e2:	df 90       	pop	r13
    11e4:	cf 90       	pop	r12
    11e6:	bf 90       	pop	r11
    11e8:	af 90       	pop	r10
    11ea:	9f 90       	pop	r9
    11ec:	8f 90       	pop	r8
    11ee:	7f 90       	pop	r7
    11f0:	6f 90       	pop	r6
    11f2:	5f 90       	pop	r5
    11f4:	08 95       	ret

000011f6 <__floatunsisf>:
    11f6:	e8 94       	clt
    11f8:	09 c0       	rjmp	.+18     	; 0x120c <__floatsisf+0x12>

000011fa <__floatsisf>:
    11fa:	97 fb       	bst	r25, 7
    11fc:	3e f4       	brtc	.+14     	; 0x120c <__floatsisf+0x12>
    11fe:	90 95       	com	r25
    1200:	80 95       	com	r24
    1202:	70 95       	com	r23
    1204:	61 95       	neg	r22
    1206:	7f 4f       	sbci	r23, 0xFF	; 255
    1208:	8f 4f       	sbci	r24, 0xFF	; 255
    120a:	9f 4f       	sbci	r25, 0xFF	; 255
    120c:	99 23       	and	r25, r25
    120e:	a9 f0       	breq	.+42     	; 0x123a <__floatsisf+0x40>
    1210:	f9 2f       	mov	r31, r25
    1212:	96 e9       	ldi	r25, 0x96	; 150
    1214:	bb 27       	eor	r27, r27
    1216:	93 95       	inc	r25
    1218:	f6 95       	lsr	r31
    121a:	87 95       	ror	r24
    121c:	77 95       	ror	r23
    121e:	67 95       	ror	r22
    1220:	b7 95       	ror	r27
    1222:	f1 11       	cpse	r31, r1
    1224:	f8 cf       	rjmp	.-16     	; 0x1216 <__floatsisf+0x1c>
    1226:	fa f4       	brpl	.+62     	; 0x1266 <__floatsisf+0x6c>
    1228:	bb 0f       	add	r27, r27
    122a:	11 f4       	brne	.+4      	; 0x1230 <__floatsisf+0x36>
    122c:	60 ff       	sbrs	r22, 0
    122e:	1b c0       	rjmp	.+54     	; 0x1266 <__floatsisf+0x6c>
    1230:	6f 5f       	subi	r22, 0xFF	; 255
    1232:	7f 4f       	sbci	r23, 0xFF	; 255
    1234:	8f 4f       	sbci	r24, 0xFF	; 255
    1236:	9f 4f       	sbci	r25, 0xFF	; 255
    1238:	16 c0       	rjmp	.+44     	; 0x1266 <__floatsisf+0x6c>
    123a:	88 23       	and	r24, r24
    123c:	11 f0       	breq	.+4      	; 0x1242 <__floatsisf+0x48>
    123e:	96 e9       	ldi	r25, 0x96	; 150
    1240:	11 c0       	rjmp	.+34     	; 0x1264 <__floatsisf+0x6a>
    1242:	77 23       	and	r23, r23
    1244:	21 f0       	breq	.+8      	; 0x124e <__floatsisf+0x54>
    1246:	9e e8       	ldi	r25, 0x8E	; 142
    1248:	87 2f       	mov	r24, r23
    124a:	76 2f       	mov	r23, r22
    124c:	05 c0       	rjmp	.+10     	; 0x1258 <__floatsisf+0x5e>
    124e:	66 23       	and	r22, r22
    1250:	71 f0       	breq	.+28     	; 0x126e <__floatsisf+0x74>
    1252:	96 e8       	ldi	r25, 0x86	; 134
    1254:	86 2f       	mov	r24, r22
    1256:	70 e0       	ldi	r23, 0x00	; 0
    1258:	60 e0       	ldi	r22, 0x00	; 0
    125a:	2a f0       	brmi	.+10     	; 0x1266 <__floatsisf+0x6c>
    125c:	9a 95       	dec	r25
    125e:	66 0f       	add	r22, r22
    1260:	77 1f       	adc	r23, r23
    1262:	88 1f       	adc	r24, r24
    1264:	da f7       	brpl	.-10     	; 0x125c <__floatsisf+0x62>
    1266:	88 0f       	add	r24, r24
    1268:	96 95       	lsr	r25
    126a:	87 95       	ror	r24
    126c:	97 f9       	bld	r25, 7
    126e:	08 95       	ret

00001270 <__mulsf3>:
    1270:	0b d0       	rcall	.+22     	; 0x1288 <__mulsf3x>
    1272:	78 c0       	rjmp	.+240    	; 0x1364 <__fp_round>
    1274:	69 d0       	rcall	.+210    	; 0x1348 <__fp_pscA>
    1276:	28 f0       	brcs	.+10     	; 0x1282 <__mulsf3+0x12>
    1278:	6e d0       	rcall	.+220    	; 0x1356 <__fp_pscB>
    127a:	18 f0       	brcs	.+6      	; 0x1282 <__mulsf3+0x12>
    127c:	95 23       	and	r25, r21
    127e:	09 f0       	breq	.+2      	; 0x1282 <__mulsf3+0x12>
    1280:	5a c0       	rjmp	.+180    	; 0x1336 <__fp_inf>
    1282:	5f c0       	rjmp	.+190    	; 0x1342 <__fp_nan>
    1284:	11 24       	eor	r1, r1
    1286:	a2 c0       	rjmp	.+324    	; 0x13cc <__fp_szero>

00001288 <__mulsf3x>:
    1288:	7e d0       	rcall	.+252    	; 0x1386 <__fp_split3>
    128a:	a0 f3       	brcs	.-24     	; 0x1274 <__mulsf3+0x4>

0000128c <__mulsf3_pse>:
    128c:	95 9f       	mul	r25, r21
    128e:	d1 f3       	breq	.-12     	; 0x1284 <__mulsf3+0x14>
    1290:	95 0f       	add	r25, r21
    1292:	50 e0       	ldi	r21, 0x00	; 0
    1294:	55 1f       	adc	r21, r21
    1296:	62 9f       	mul	r22, r18
    1298:	f0 01       	movw	r30, r0
    129a:	72 9f       	mul	r23, r18
    129c:	bb 27       	eor	r27, r27
    129e:	f0 0d       	add	r31, r0
    12a0:	b1 1d       	adc	r27, r1
    12a2:	63 9f       	mul	r22, r19
    12a4:	aa 27       	eor	r26, r26
    12a6:	f0 0d       	add	r31, r0
    12a8:	b1 1d       	adc	r27, r1
    12aa:	aa 1f       	adc	r26, r26
    12ac:	64 9f       	mul	r22, r20
    12ae:	66 27       	eor	r22, r22
    12b0:	b0 0d       	add	r27, r0
    12b2:	a1 1d       	adc	r26, r1
    12b4:	66 1f       	adc	r22, r22
    12b6:	82 9f       	mul	r24, r18
    12b8:	22 27       	eor	r18, r18
    12ba:	b0 0d       	add	r27, r0
    12bc:	a1 1d       	adc	r26, r1
    12be:	62 1f       	adc	r22, r18
    12c0:	73 9f       	mul	r23, r19
    12c2:	b0 0d       	add	r27, r0
    12c4:	a1 1d       	adc	r26, r1
    12c6:	62 1f       	adc	r22, r18
    12c8:	83 9f       	mul	r24, r19
    12ca:	a0 0d       	add	r26, r0
    12cc:	61 1d       	adc	r22, r1
    12ce:	22 1f       	adc	r18, r18
    12d0:	74 9f       	mul	r23, r20
    12d2:	33 27       	eor	r19, r19
    12d4:	a0 0d       	add	r26, r0
    12d6:	61 1d       	adc	r22, r1
    12d8:	23 1f       	adc	r18, r19
    12da:	84 9f       	mul	r24, r20
    12dc:	60 0d       	add	r22, r0
    12de:	21 1d       	adc	r18, r1
    12e0:	82 2f       	mov	r24, r18
    12e2:	76 2f       	mov	r23, r22
    12e4:	6a 2f       	mov	r22, r26
    12e6:	11 24       	eor	r1, r1
    12e8:	9f 57       	subi	r25, 0x7F	; 127
    12ea:	50 40       	sbci	r21, 0x00	; 0
    12ec:	8a f0       	brmi	.+34     	; 0x1310 <__mulsf3_pse+0x84>
    12ee:	e1 f0       	breq	.+56     	; 0x1328 <__mulsf3_pse+0x9c>
    12f0:	88 23       	and	r24, r24
    12f2:	4a f0       	brmi	.+18     	; 0x1306 <__mulsf3_pse+0x7a>
    12f4:	ee 0f       	add	r30, r30
    12f6:	ff 1f       	adc	r31, r31
    12f8:	bb 1f       	adc	r27, r27
    12fa:	66 1f       	adc	r22, r22
    12fc:	77 1f       	adc	r23, r23
    12fe:	88 1f       	adc	r24, r24
    1300:	91 50       	subi	r25, 0x01	; 1
    1302:	50 40       	sbci	r21, 0x00	; 0
    1304:	a9 f7       	brne	.-22     	; 0x12f0 <__mulsf3_pse+0x64>
    1306:	9e 3f       	cpi	r25, 0xFE	; 254
    1308:	51 05       	cpc	r21, r1
    130a:	70 f0       	brcs	.+28     	; 0x1328 <__mulsf3_pse+0x9c>
    130c:	14 c0       	rjmp	.+40     	; 0x1336 <__fp_inf>
    130e:	5e c0       	rjmp	.+188    	; 0x13cc <__fp_szero>
    1310:	5f 3f       	cpi	r21, 0xFF	; 255
    1312:	ec f3       	brlt	.-6      	; 0x130e <__mulsf3_pse+0x82>
    1314:	98 3e       	cpi	r25, 0xE8	; 232
    1316:	dc f3       	brlt	.-10     	; 0x130e <__mulsf3_pse+0x82>
    1318:	86 95       	lsr	r24
    131a:	77 95       	ror	r23
    131c:	67 95       	ror	r22
    131e:	b7 95       	ror	r27
    1320:	f7 95       	ror	r31
    1322:	e7 95       	ror	r30
    1324:	9f 5f       	subi	r25, 0xFF	; 255
    1326:	c1 f7       	brne	.-16     	; 0x1318 <__mulsf3_pse+0x8c>
    1328:	fe 2b       	or	r31, r30
    132a:	88 0f       	add	r24, r24
    132c:	91 1d       	adc	r25, r1
    132e:	96 95       	lsr	r25
    1330:	87 95       	ror	r24
    1332:	97 f9       	bld	r25, 7
    1334:	08 95       	ret

00001336 <__fp_inf>:
    1336:	97 f9       	bld	r25, 7
    1338:	9f 67       	ori	r25, 0x7F	; 127
    133a:	80 e8       	ldi	r24, 0x80	; 128
    133c:	70 e0       	ldi	r23, 0x00	; 0
    133e:	60 e0       	ldi	r22, 0x00	; 0
    1340:	08 95       	ret

00001342 <__fp_nan>:
    1342:	9f ef       	ldi	r25, 0xFF	; 255
    1344:	80 ec       	ldi	r24, 0xC0	; 192
    1346:	08 95       	ret

00001348 <__fp_pscA>:
    1348:	00 24       	eor	r0, r0
    134a:	0a 94       	dec	r0
    134c:	16 16       	cp	r1, r22
    134e:	17 06       	cpc	r1, r23
    1350:	18 06       	cpc	r1, r24
    1352:	09 06       	cpc	r0, r25
    1354:	08 95       	ret

00001356 <__fp_pscB>:
    1356:	00 24       	eor	r0, r0
    1358:	0a 94       	dec	r0
    135a:	12 16       	cp	r1, r18
    135c:	13 06       	cpc	r1, r19
    135e:	14 06       	cpc	r1, r20
    1360:	05 06       	cpc	r0, r21
    1362:	08 95       	ret

00001364 <__fp_round>:
    1364:	09 2e       	mov	r0, r25
    1366:	03 94       	inc	r0
    1368:	00 0c       	add	r0, r0
    136a:	11 f4       	brne	.+4      	; 0x1370 <__fp_round+0xc>
    136c:	88 23       	and	r24, r24
    136e:	52 f0       	brmi	.+20     	; 0x1384 <__fp_round+0x20>
    1370:	bb 0f       	add	r27, r27
    1372:	40 f4       	brcc	.+16     	; 0x1384 <__fp_round+0x20>
    1374:	bf 2b       	or	r27, r31
    1376:	11 f4       	brne	.+4      	; 0x137c <__fp_round+0x18>
    1378:	60 ff       	sbrs	r22, 0
    137a:	04 c0       	rjmp	.+8      	; 0x1384 <__fp_round+0x20>
    137c:	6f 5f       	subi	r22, 0xFF	; 255
    137e:	7f 4f       	sbci	r23, 0xFF	; 255
    1380:	8f 4f       	sbci	r24, 0xFF	; 255
    1382:	9f 4f       	sbci	r25, 0xFF	; 255
    1384:	08 95       	ret

00001386 <__fp_split3>:
    1386:	57 fd       	sbrc	r21, 7
    1388:	90 58       	subi	r25, 0x80	; 128
    138a:	44 0f       	add	r20, r20
    138c:	55 1f       	adc	r21, r21
    138e:	59 f0       	breq	.+22     	; 0x13a6 <__fp_splitA+0x10>
    1390:	5f 3f       	cpi	r21, 0xFF	; 255
    1392:	71 f0       	breq	.+28     	; 0x13b0 <__fp_splitA+0x1a>
    1394:	47 95       	ror	r20

00001396 <__fp_splitA>:
    1396:	88 0f       	add	r24, r24
    1398:	97 fb       	bst	r25, 7
    139a:	99 1f       	adc	r25, r25
    139c:	61 f0       	breq	.+24     	; 0x13b6 <__fp_splitA+0x20>
    139e:	9f 3f       	cpi	r25, 0xFF	; 255
    13a0:	79 f0       	breq	.+30     	; 0x13c0 <__fp_splitA+0x2a>
    13a2:	87 95       	ror	r24
    13a4:	08 95       	ret
    13a6:	12 16       	cp	r1, r18
    13a8:	13 06       	cpc	r1, r19
    13aa:	14 06       	cpc	r1, r20
    13ac:	55 1f       	adc	r21, r21
    13ae:	f2 cf       	rjmp	.-28     	; 0x1394 <__fp_split3+0xe>
    13b0:	46 95       	lsr	r20
    13b2:	f1 df       	rcall	.-30     	; 0x1396 <__fp_splitA>
    13b4:	08 c0       	rjmp	.+16     	; 0x13c6 <__fp_splitA+0x30>
    13b6:	16 16       	cp	r1, r22
    13b8:	17 06       	cpc	r1, r23
    13ba:	18 06       	cpc	r1, r24
    13bc:	99 1f       	adc	r25, r25
    13be:	f1 cf       	rjmp	.-30     	; 0x13a2 <__fp_splitA+0xc>
    13c0:	86 95       	lsr	r24
    13c2:	71 05       	cpc	r23, r1
    13c4:	61 05       	cpc	r22, r1
    13c6:	08 94       	sec
    13c8:	08 95       	ret

000013ca <__fp_zero>:
    13ca:	e8 94       	clt

000013cc <__fp_szero>:
    13cc:	bb 27       	eor	r27, r27
    13ce:	66 27       	eor	r22, r22
    13d0:	77 27       	eor	r23, r23
    13d2:	cb 01       	movw	r24, r22
    13d4:	97 f9       	bld	r25, 7
    13d6:	08 95       	ret

000013d8 <adxl345_spi_init>:
#include "spi_adxl345.h" 
#include "delay.h"
void adxl345_spi_init(void)
{

	uc_sw_cs_LO;
    13d8:	dd 98       	cbi	0x1b, 5	; 27
	uc_sw_cs_OUT;
    13da:	d5 9a       	sbi	0x1a, 5	; 26
 
	uc_sw_SCLK_HI;
    13dc:	de 9a       	sbi	0x1b, 6	; 27
	uc_sw_SCLK_OUT;
    13de:	d6 9a       	sbi	0x1a, 6	; 26
	
    uc_sw_SDI_LO;
    13e0:	df 98       	cbi	0x1b, 7	; 27
    uc_sw_SDI_OUT;
    13e2:	d7 9a       	sbi	0x1a, 7	; 26
 
    uc_sw_SDO_LO; 
    13e4:	e5 e6       	ldi	r30, 0x65	; 101
    13e6:	f0 e0       	ldi	r31, 0x00	; 0
    13e8:	80 81       	ld	r24, Z
    13ea:	8b 7f       	andi	r24, 0xFB	; 251
    13ec:	80 83       	st	Z, r24
    uc_sw_SDO_IN;
    13ee:	e4 e6       	ldi	r30, 0x64	; 100
    13f0:	f0 e0       	ldi	r31, 0x00	; 0
    13f2:	80 81       	ld	r24, Z
    13f4:	8b 7f       	andi	r24, 0xFB	; 251
    13f6:	80 83       	st	Z, r24
}
    13f8:	08 95       	ret

000013fa <getDOUT.1527>:

char getDOUT(void)
{
	if (PING & (1<<2)) return 1; 	// read PA7
    13fa:	80 91 63 00 	lds	r24, 0x0063
    13fe:	90 e0       	ldi	r25, 0x00	; 0
    1400:	96 95       	lsr	r25
    1402:	87 95       	ror	r24
    1404:	96 95       	lsr	r25
    1406:	87 95       	ror	r24
	else return 0; 
}
    1408:	81 70       	andi	r24, 0x01	; 1
    140a:	08 95       	ret

0000140c <adxl345_spi_write.1523>:
	
	temp_set = 1;		// 10
	temp_clr = 1;		// 10
	// want to change this variable, please use oscilloscope
	
	uc_sw_SCLK_HI;
    140c:	de 9a       	sbi	0x1b, 6	; 27
	uc_sw_cs_LO;		// enable /CS_ADC
    140e:	dd 98       	cbi	0x1b, 5	; 27
    1410:	27 e0       	ldi	r18, 0x07	; 7
    1412:	30 e0       	ldi	r19, 0x00	; 0
	
	for (i=8;i>0;i--)
	{
		uc_sw_SCLK_LO; 
		data_in = address >> (i-1);
		if(data_in & 0x01) uc_sw_SDI_HI;
    1414:	48 2f       	mov	r20, r24
    1416:	50 e0       	ldi	r21, 0x00	; 0
			
	// Send command
	
	for (i=8;i>0;i--)
	{
		uc_sw_SCLK_LO; 
    1418:	de 98       	cbi	0x1b, 6	; 27
		data_in = address >> (i-1);
		if(data_in & 0x01) uc_sw_SDI_HI;
    141a:	ca 01       	movw	r24, r20
    141c:	02 2e       	mov	r0, r18
    141e:	02 c0       	rjmp	.+4      	; 0x1424 <adxl345_spi_write.1523+0x18>
    1420:	95 95       	asr	r25
    1422:	87 95       	ror	r24
    1424:	0a 94       	dec	r0
    1426:	e2 f7       	brpl	.-8      	; 0x1420 <adxl345_spi_write.1523+0x14>
    1428:	80 ff       	sbrs	r24, 0
    142a:	02 c0       	rjmp	.+4      	; 0x1430 <adxl345_spi_write.1523+0x24>
    142c:	df 9a       	sbi	0x1b, 7	; 27
    142e:	01 c0       	rjmp	.+2      	; 0x1432 <adxl345_spi_write.1523+0x26>
		else uc_sw_SDI_LO;
    1430:	df 98       	cbi	0x1b, 7	; 27
		//for(j=0;j<temp_clr;j++) delay_us(1);
		uc_sw_SCLK_HI; //for(j=0;j<temp_set;j++) delay_us(1);
    1432:	de 9a       	sbi	0x1b, 6	; 27
    1434:	21 50       	subi	r18, 0x01	; 1
    1436:	30 40       	sbci	r19, 0x00	; 0
	
	//for(j=0;j<temp_clr;j++) delay_us(1);		//=12us
			
	// Send command
	
	for (i=8;i>0;i--)
    1438:	8f ef       	ldi	r24, 0xFF	; 255
    143a:	2f 3f       	cpi	r18, 0xFF	; 255
    143c:	38 07       	cpc	r19, r24
    143e:	61 f7       	brne	.-40     	; 0x1418 <adxl345_spi_write.1523+0xc>
    1440:	27 e0       	ldi	r18, 0x07	; 7
    1442:	30 e0       	ldi	r19, 0x00	; 0
	// send data
	for (i=8;i>0;i--)
	{
		uc_sw_SCLK_LO; 
		data_in = data >> (i-1);
		if(data_in & 0x01) uc_sw_SDI_HI;
    1444:	70 e0       	ldi	r23, 0x00	; 0
	
	
	// send data
	for (i=8;i>0;i--)
	{
		uc_sw_SCLK_LO; 
    1446:	de 98       	cbi	0x1b, 6	; 27
		data_in = data >> (i-1);
		if(data_in & 0x01) uc_sw_SDI_HI;
    1448:	cb 01       	movw	r24, r22
    144a:	02 2e       	mov	r0, r18
    144c:	02 c0       	rjmp	.+4      	; 0x1452 <adxl345_spi_write.1523+0x46>
    144e:	95 95       	asr	r25
    1450:	87 95       	ror	r24
    1452:	0a 94       	dec	r0
    1454:	e2 f7       	brpl	.-8      	; 0x144e <adxl345_spi_write.1523+0x42>
    1456:	80 ff       	sbrs	r24, 0
    1458:	02 c0       	rjmp	.+4      	; 0x145e <adxl345_spi_write.1523+0x52>
    145a:	df 9a       	sbi	0x1b, 7	; 27
    145c:	01 c0       	rjmp	.+2      	; 0x1460 <adxl345_spi_write.1523+0x54>
		else uc_sw_SDI_LO;
    145e:	df 98       	cbi	0x1b, 7	; 27
		//for(j=0;j<temp_clr;j++) delay_us(1);
		uc_sw_SCLK_HI; //for(j=0;j<temp_set;j++) delay_us(1);
    1460:	de 9a       	sbi	0x1b, 6	; 27
    1462:	21 50       	subi	r18, 0x01	; 1
    1464:	30 40       	sbci	r19, 0x00	; 0
		uc_sw_SCLK_HI; //for(j=0;j<temp_set;j++) delay_us(1);
	}
	
	
	// send data
	for (i=8;i>0;i--)
    1466:	8f ef       	ldi	r24, 0xFF	; 255
    1468:	2f 3f       	cpi	r18, 0xFF	; 255
    146a:	38 07       	cpc	r19, r24
    146c:	61 f7       	brne	.-40     	; 0x1446 <adxl345_spi_write.1523+0x3a>
	}
	
	
	// end of transmission
	
	uc_sw_cs_HI;		// disable /CS_ADC
    146e:	dd 9a       	sbi	0x1b, 5	; 27
}
    1470:	08 95       	ret

00001472 <adxl345_spi_read.1525>:
	
uint8_t adxl345_spi_read(uint8_t data)
{
    1472:	0f 93       	push	r16
    1474:	1f 93       	push	r17
	temp_set = 1;		// 10
	temp_clr = 1;		// 10

	// want to change this variable, please use oscilloscope
	
	uc_sw_SCLK_HI;
    1476:	de 9a       	sbi	0x1b, 6	; 27
	uc_sw_cs_LO;		// enable /uc_sw_cs
    1478:	dd 98       	cbi	0x1b, 5	; 27
    147a:	27 e0       	ldi	r18, 0x07	; 7
    147c:	30 e0       	ldi	r19, 0x00	; 0
	
	// Send command
	for (i=8;i>0;i--)
	{
		uc_sw_SCLK_LO; 
		data_in = data >> (i-1);
    147e:	48 2f       	mov	r20, r24
    1480:	50 e0       	ldi	r21, 0x00	; 0
//	for(j=0;j<temp_clr;j++) ;
	
	// Send command
	for (i=8;i>0;i--)
	{
		uc_sw_SCLK_LO; 
    1482:	de 98       	cbi	0x1b, 6	; 27
		data_in = data >> (i-1);
		if(i == 8) data_in = 0x01; // read byte
    1484:	27 30       	cpi	r18, 0x07	; 7
    1486:	11 f4       	brne	.+4      	; 0x148c <adxl345_spi_read.1525+0x1a>
    1488:	81 e0       	ldi	r24, 0x01	; 1
    148a:	07 c0       	rjmp	.+14     	; 0x149a <adxl345_spi_read.1525+0x28>
	
	// Send command
	for (i=8;i>0;i--)
	{
		uc_sw_SCLK_LO; 
		data_in = data >> (i-1);
    148c:	ca 01       	movw	r24, r20
    148e:	02 2e       	mov	r0, r18
    1490:	02 c0       	rjmp	.+4      	; 0x1496 <adxl345_spi_read.1525+0x24>
    1492:	95 95       	asr	r25
    1494:	87 95       	ror	r24
    1496:	0a 94       	dec	r0
    1498:	e2 f7       	brpl	.-8      	; 0x1492 <adxl345_spi_read.1525+0x20>
		if(i == 8) data_in = 0x01; // read byte
		if(data_in & 0x01) uc_sw_SDI_HI;
    149a:	80 ff       	sbrs	r24, 0
    149c:	02 c0       	rjmp	.+4      	; 0x14a2 <adxl345_spi_read.1525+0x30>
    149e:	df 9a       	sbi	0x1b, 7	; 27
    14a0:	01 c0       	rjmp	.+2      	; 0x14a4 <adxl345_spi_read.1525+0x32>
		else uc_sw_SDI_LO;
    14a2:	df 98       	cbi	0x1b, 7	; 27
		//for(j=0;j<temp_clr;j++) delay_us(1);
		uc_sw_SCLK_HI; //for(j=0;j<temp_set;j++) delay_us(1);
    14a4:	de 9a       	sbi	0x1b, 6	; 27
    14a6:	21 50       	subi	r18, 0x01	; 1
    14a8:	30 40       	sbci	r19, 0x00	; 0
	uc_sw_cs_LO;		// enable /uc_sw_cs
	
//	for(j=0;j<temp_clr;j++) ;
	
	// Send command
	for (i=8;i>0;i--)
    14aa:	8f ef       	ldi	r24, 0xFF	; 255
    14ac:	2f 3f       	cpi	r18, 0xFF	; 255
    14ae:	38 07       	cpc	r19, r24
    14b0:	41 f7       	brne	.-48     	; 0x1482 <adxl345_spi_read.1525+0x10>
    14b2:	00 e0       	ldi	r16, 0x00	; 0
    14b4:	10 e0       	ldi	r17, 0x00	; 0
	}
	
	// Read data
	for (i=0;i<8;i++)
	{
		uc_sw_SCLK_LO; //for(j=0;j<temp_clr;j++) delay_us(1);
    14b6:	de 98       	cbi	0x1b, 6	; 27
		data_out |= getDOUT();
    14b8:	a0 df       	rcall	.-192    	; 0x13fa <getDOUT.1527>
    14ba:	08 2b       	or	r16, r24
		if(i != 7) data_out <<= 1;  // do not shift data if this is the late bit
    14bc:	17 30       	cpi	r17, 0x07	; 7
    14be:	09 f0       	breq	.+2      	; 0x14c2 <adxl345_spi_read.1525+0x50>
    14c0:	00 0f       	add	r16, r16
		uc_sw_SCLK_HI; //for(j=0;j<temp_set;j++) delay_us(1);
    14c2:	de 9a       	sbi	0x1b, 6	; 27
		//for(j=0;j<temp_clr;j++) delay_us(1);
		uc_sw_SCLK_HI; //for(j=0;j<temp_set;j++) delay_us(1);
	}
	
	// Read data
	for (i=0;i<8;i++)
    14c4:	1f 5f       	subi	r17, 0xFF	; 255
    14c6:	18 30       	cpi	r17, 0x08	; 8
    14c8:	b1 f7       	brne	.-20     	; 0x14b6 <adxl345_spi_read.1525+0x44>
		uc_sw_SCLK_HI; //for(j=0;j<temp_set;j++) delay_us(1);

	} 
	// end of transmission
	
	uc_sw_cs_HI;		// disable /uc_sw_cs
    14ca:	dd 9a       	sbi	0x1b, 5	; 27
	return data_out;
    14cc:	80 2f       	mov	r24, r16
    14ce:	1f 91       	pop	r17
    14d0:	0f 91       	pop	r16
    14d2:	08 95       	ret

000014d4 <__vector_14>:
/********************************************************************************
Interrupt Routines
********************************************************************************/

// timer1 overflow
ISR(TIMER1_OVF_vect) {
    14d4:	1f 92       	push	r1
    14d6:	0f 92       	push	r0
    14d8:	0f b6       	in	r0, 0x3f	; 63
    14da:	0f 92       	push	r0
    14dc:	11 24       	eor	r1, r1
   // printf("***** Timer1 Overflow *****\n");
}
    14de:	0f 90       	pop	r0
    14e0:	0f be       	out	0x3f, r0	; 63
    14e2:	0f 90       	pop	r0
    14e4:	1f 90       	pop	r1
    14e6:	18 95       	reti

000014e8 <__vector_16>:
// timer0 overflow
ISR(TIMER0_OVF_vect) {
    14e8:	1f 92       	push	r1
    14ea:	0f 92       	push	r0
    14ec:	0f b6       	in	r0, 0x3f	; 63
    14ee:	0f 92       	push	r0
    14f0:	11 24       	eor	r1, r1
    14f2:	8f 93       	push	r24
    14f4:	9f 93       	push	r25
    // 61 ticks = 2 seconds @ 8.0MHz
    timer0_ticks++;
    14f6:	80 91 bc 01 	lds	r24, 0x01BC
    14fa:	8f 5f       	subi	r24, 0xFF	; 255
    14fc:	80 93 bc 01 	sts	0x01BC, r24
	//printf("Its been %u ticks.\n",timer0_ticks);
    if(timer0_ticks < 10){
    1500:	80 91 bc 01 	lds	r24, 0x01BC
        //fake it 
    }
    if(timer0_ticks==61){
    1504:	80 91 bc 01 	lds	r24, 0x01BC
    1508:	8d 33       	cpi	r24, 0x3D	; 61
    150a:	b9 f4       	brne	.+46     	; 0x153a <__vector_16+0x52>
        timer0_ticks = 0;
    150c:	10 92 bc 01 	sts	0x01BC, r1
        // till you make it, now we increment seconds twice
		if(overflowCount >= 100){
    1510:	80 91 bd 01 	lds	r24, 0x01BD
    1514:	90 91 be 01 	lds	r25, 0x01BE
    1518:	84 36       	cpi	r24, 0x64	; 100
    151a:	91 05       	cpc	r25, r1
    151c:	28 f0       	brcs	.+10     	; 0x1528 <__vector_16+0x40>
			overflowCount = 0;
    151e:	10 92 be 01 	sts	0x01BE, r1
    1522:	10 92 bd 01 	sts	0x01BD, r1
    1526:	09 c0       	rjmp	.+18     	; 0x153a <__vector_16+0x52>
		}else{
			overflowCount++;
    1528:	80 91 bd 01 	lds	r24, 0x01BD
    152c:	90 91 be 01 	lds	r25, 0x01BE
    1530:	01 96       	adiw	r24, 0x01	; 1
    1532:	90 93 be 01 	sts	0x01BE, r25
    1536:	80 93 bd 01 	sts	0x01BD, r24
		}
       // printf("Its been %u seconds.\n",seconds);
    }
}
    153a:	9f 91       	pop	r25
    153c:	8f 91       	pop	r24
    153e:	0f 90       	pop	r0
    1540:	0f be       	out	0x3f, r0	; 63
    1542:	0f 90       	pop	r0
    1544:	1f 90       	pop	r1
    1546:	18 95       	reti

00001548 <adc_init.1365>:
/******************************************************************************\
 * See adc.h for documentation of these functions.
\******************************************************************************/

void adc_init(uint8_t channel, uint8_t bits, uint8_t voltageRef)
{
    1548:	98 2f       	mov	r25, r24
    /* Check parameters */
    bits = ADC_BITS_10;
    if (channel > ADC_MAX_CHANNEL) {
        channel = ADC_MAX_CHANNEL;  /* GND reference */
    }
    if (voltageRef > ADC_REF_INTERNAL) {
    154a:	44 30       	cpi	r20, 0x04	; 4
    154c:	08 f0       	brcs	.+2      	; 0x1550 <adc_init.1365+0x8>
    154e:	41 e0       	ldi	r20, 0x01	; 1
    else if (adcPrescaler < 32) { adcPrescaler = PRESCALER_DIV32; }
    else if (adcPrescaler < 64) { adcPrescaler = PRESCALER_DIV64; }
    else                        { adcPrescaler = PRESCALER_DIV128; }

    /* Set clock */
    ADCSRA = (ADCSRA & ~0x03) | (adcPrescaler);
    1550:	86 b1       	in	r24, 0x06	; 6
    1552:	8c 7f       	andi	r24, 0xFC	; 252
    1554:	86 60       	ori	r24, 0x06	; 6
    1556:	86 b9       	out	0x06, r24	; 6

    /* Set channel, voltage reference and right justification */
    ADMUX = (voltageRef << REFS0) | channel;
    1558:	50 e0       	ldi	r21, 0x00	; 0
    155a:	36 e0       	ldi	r19, 0x06	; 6
    155c:	44 0f       	add	r20, r20
    155e:	55 1f       	adc	r21, r21
    1560:	3a 95       	dec	r19
    1562:	e1 f7       	brne	.-8      	; 0x155c <adc_init.1365+0x14>
    1564:	89 2f       	mov	r24, r25
    1566:	90 32       	cpi	r25, 0x20	; 32
    1568:	08 f0       	brcs	.+2      	; 0x156c <adc_init.1365+0x24>
    156a:	8f e1       	ldi	r24, 0x1F	; 31
    156c:	84 2b       	or	r24, r20
    156e:	87 b9       	out	0x07, r24	; 7

    /* Enable ADC */
    ADCSRA |= BIT(ADEN) | BIT(ADIE);
    1570:	86 b1       	in	r24, 0x06	; 6
    1572:	88 68       	ori	r24, 0x88	; 136
    1574:	86 b9       	out	0x06, r24	; 6
    isNewValue = false;
    1576:	10 92 18 01 	sts	0x0118, r1
    enableInterrupts();
    157a:	78 94       	sei
}
    157c:	08 95       	ret

0000157e <adc_singleConversion.1374>:
uint16_t adc_singleConversion(void)
{
    uint16_t result;
        
    /* Check that ADC is enabled */
    if ( !(ADCSRA & BIT(ADEN))) {
    157e:	37 99       	sbic	0x06, 7	; 6
    1580:	03 c0       	rjmp	.+6      	; 0x1588 <adc_singleConversion.1374+0xa>
    1582:	8f ef       	ldi	r24, 0xFF	; 255
    1584:	9f ef       	ldi	r25, 0xFF	; 255
    1586:	08 95       	ret
        return 0xFFFF;
    }

    /* Start single conversion */
    ADCSRA &= ~BIT(ADFR);
    1588:	35 98       	cbi	0x06, 5	; 6
    ADCSRA |= BIT(ADSC);
    158a:	36 9a       	sbi	0x06, 6	; 6
    
#ifndef ADC_USE_CALLBACK
    /* Wait for conversion to complete */
    while (!isNewValue) {
    158c:	80 91 18 01 	lds	r24, 0x0118
    1590:	88 23       	and	r24, r24
    1592:	e1 f3       	breq	.-8      	; 0x158c <adc_singleConversion.1374+0xe>
        ;
    }
    disableInterrupts();
    1594:	f8 94       	cli
    isNewValue = false;
    1596:	10 92 18 01 	sts	0x0118, r1
    result = result_local;
    159a:	80 91 16 01 	lds	r24, 0x0116
    159e:	90 91 17 01 	lds	r25, 0x0117
    enableInterrupts();
    15a2:	78 94       	sei
    return result;
#else
    return 0;
#endif
}
    15a4:	08 95       	ret

000015a6 <__vector_21>:
 * Interrupt service routine that is signalled when an ADC conversion has
 * finished. The resulting value is stored locally, and a flag set to indicate
 * that a new value has been generated.
 **/
ISR(ADC_vect)
{
    15a6:	1f 92       	push	r1
    15a8:	0f 92       	push	r0
    15aa:	0f b6       	in	r0, 0x3f	; 63
    15ac:	0f 92       	push	r0
    15ae:	11 24       	eor	r1, r1
    15b0:	2f 93       	push	r18
    15b2:	3f 93       	push	r19
    15b4:	8f 93       	push	r24
    15b6:	9f 93       	push	r25
    uint8_t resultLowByte;

    /* Must read ADCL before ADCH */
    resultLowByte = ADCL;
    15b8:	84 b1       	in	r24, 0x04	; 4
    result_local = TO_UINT16(ADCH, resultLowByte);
    15ba:	25 b1       	in	r18, 0x05	; 5
    15bc:	30 e0       	ldi	r19, 0x00	; 0
    15be:	32 2f       	mov	r19, r18
    15c0:	22 27       	eor	r18, r18
    15c2:	90 e0       	ldi	r25, 0x00	; 0
    15c4:	28 2b       	or	r18, r24
    15c6:	39 2b       	or	r19, r25
    15c8:	30 93 17 01 	sts	0x0117, r19
    15cc:	20 93 16 01 	sts	0x0116, r18
    isNewValue = true;
    15d0:	81 e0       	ldi	r24, 0x01	; 1
    15d2:	80 93 18 01 	sts	0x0118, r24
    
#ifdef ADC_USE_CALLBACK
    adc_callback(result_local);
#endif
}
    15d6:	9f 91       	pop	r25
    15d8:	8f 91       	pop	r24
    15da:	3f 91       	pop	r19
    15dc:	2f 91       	pop	r18
    15de:	0f 90       	pop	r0
    15e0:	0f be       	out	0x3f, r0	; 63
    15e2:	0f 90       	pop	r0
    15e4:	1f 90       	pop	r1
    15e6:	18 95       	reti

000015e8 <__vector_15>:
 */
 
#ifndef BOARD_HAS_NO_TOSC1_CRYSTAL
/* Signalled every 8 seconds */
ISR(TIMER0_COMP_vect)
{
    15e8:	1f 92       	push	r1
    15ea:	0f 92       	push	r0
    15ec:	0f b6       	in	r0, 0x3f	; 63
    15ee:	0f 92       	push	r0
    15f0:	11 24       	eor	r1, r1
    15f2:	8f 93       	push	r24
    15f4:	9f 93       	push	r25
    TCCR0 = PRESCALE_T0_DIV_1024;
    15f6:	87 e0       	ldi	r24, 0x07	; 7
    15f8:	83 bf       	out	0x33, r24	; 51

    timerInterruptCount[TIMER_SECOND]++;
    15fa:	80 91 1d 01 	lds	r24, 0x011D
    15fe:	90 91 1e 01 	lds	r25, 0x011E
    1602:	01 96       	adiw	r24, 0x01	; 1
    1604:	90 93 1e 01 	sts	0x011E, r25
    1608:	80 93 1d 01 	sts	0x011D, r24
        TCNT0 = 0;
        isTimerInt[TIMER_SECOND] = 0;
    }
#endif
    /* Use update busy flag to know when interrupt logic is reset */
    while (ASSR & BIT(TCR0UB)) {
    160c:	00 b6       	in	r0, 0x30	; 48
    160e:	00 fc       	sbrc	r0, 0
    1610:	fd cf       	rjmp	.-6      	; 0x160c <__vector_15+0x24>
        ;
    }
}
    1612:	9f 91       	pop	r25
    1614:	8f 91       	pop	r24
    1616:	0f 90       	pop	r0
    1618:	0f be       	out	0x3f, r0	; 63
    161a:	0f 90       	pop	r0
    161c:	1f 90       	pop	r1
    161e:	18 95       	reti

00001620 <__vector_9>:
}

#endif
/* Signalled every millisecond */
ISR(TIMER2_COMP_vect)
{
    1620:	1f 92       	push	r1
    1622:	0f 92       	push	r0
    1624:	0f b6       	in	r0, 0x3f	; 63
    1626:	0f 92       	push	r0
    1628:	11 24       	eor	r1, r1
    162a:	8f 93       	push	r24
    162c:	9f 93       	push	r25
    timerInterruptCount[TIMER_MILLISECOND]++;
    162e:	80 91 1f 01 	lds	r24, 0x011F
    1632:	90 91 20 01 	lds	r25, 0x0120
    1636:	01 96       	adiw	r24, 0x01	; 1
    1638:	90 93 20 01 	sts	0x0120, r25
    163c:	80 93 1f 01 	sts	0x011F, r24
        }
        timerInterruptCount[TIMER_MILLISECOND] = 0;
        isTimerInt[TIMER_MILLISECOND] = 0;
    }
#endif
}
    1640:	9f 91       	pop	r25
    1642:	8f 91       	pop	r24
    1644:	0f 90       	pop	r0
    1646:	0f be       	out	0x3f, r0	; 63
    1648:	0f 90       	pop	r0
    164a:	1f 90       	pop	r1
    164c:	18 95       	reti

0000164e <write.9363>:
#ifndef UART_DO_NOT_INSERT_RETURN
   //if (ch == '\n')
     //   putchar('\r');
#endif

    UDR0 = ch;
    164e:	8c b9       	out	0x0c, r24	; 12
    while ( !(UCSR0A & BIT(UDRE0)) )
    1650:	5d 9b       	sbis	0x0b, 5	; 11
    1652:	fe cf       	rjmp	.-4      	; 0x1650 <write.9363+0x2>
 * type expected by AVR-libc stdio system.
 */
static int write(char ch, FILE __attribute__((unused)) *unused)
{
    return uart_putchar(ch);
}
    1654:	90 e0       	ldi	r25, 0x00	; 0
    1656:	08 95       	ret

00001658 <read.9365>:
}


uint8_t uart_getchar(void)
{
    while ( !(UCSR0A & BIT(RXC0)) )
    1658:	5f 9b       	sbis	0x0b, 7	; 11
    165a:	fe cf       	rjmp	.-4      	; 0x1658 <read.9365>
        ;
    return UDR0;
    165c:	8c b1       	in	r24, 0x0c	; 12
 * conforms to function type expected by AVR-libc stdio system.
 */
static int read(FILE __attribute__((unused)) *unused)
{
    return uart_getchar();
}
    165e:	90 e0       	ldi	r25, 0x00	; 0
    1660:	08 95       	ret

00001662 <getByte.9909>:

/** Enable chip select connected to radio. **/
FORCE_INLINE
static inline void spi_enableCsn(void)
{
    SPI_PORT &= ~BIT(SPI_CSN);
    1662:	c0 98       	cbi	0x18, 0	; 24


FORCE_INLINE
static inline uint8_t spi_readWriteByte(uint8_t byte)
{
    SPDR = byte;
    1664:	1f b8       	out	0x0f, r1	; 15
    while (!(SPSR & BIT(SPIF))) {
    1666:	77 9b       	sbis	0x0e, 7	; 14
    1668:	fe cf       	rjmp	.-4      	; 0x1666 <getByte.9909+0x4>
        ;
    }
    return SPDR;
    166a:	8f b1       	in	r24, 0x0f	; 15

/** Disable chip select connected to radio. **/
FORCE_INLINE
static inline void spi_disableCsn(void)
{
    SPI_PORT |= BIT(SPI_CSN);
    166c:	c0 9a       	sbi	0x18, 0	; 24
    uint8_t byte;
    spi_enableCsn();
    byte = spi_readWriteByte(0);
    spi_disableCsn();
    return byte;
}
    166e:	08 95       	ret

00001670 <sendByte.9911>:

/** Enable chip select connected to radio. **/
FORCE_INLINE
static inline void spi_enableCsn(void)
{
    SPI_PORT &= ~BIT(SPI_CSN);
    1670:	c0 98       	cbi	0x18, 0	; 24


FORCE_INLINE
static inline uint8_t spi_readWriteByte(uint8_t byte)
{
    SPDR = byte;
    1672:	8f b9       	out	0x0f, r24	; 15
    while (!(SPSR & BIT(SPIF))) {
    1674:	77 9b       	sbis	0x0e, 7	; 14
    1676:	fe cf       	rjmp	.-4      	; 0x1674 <sendByte.9911+0x4>
        ;
    }
    return SPDR;
    1678:	8f b1       	in	r24, 0x0f	; 15

/** Disable chip select connected to radio. **/
FORCE_INLINE
static inline void spi_disableCsn(void)
{
    SPI_PORT |= BIT(SPI_CSN);
    167a:	c0 9a       	sbi	0x18, 0	; 24
static void sendByte(uint8_t byte)
{
    spi_enableCsn();
    spi_readWriteByte(byte);
    spi_disableCsn();
}
    167c:	08 95       	ret

0000167e <rf_setMode.1476>:
    buffer = receiveBuffer;
}


void rf_setMode(uint8_t mode)
{
    167e:	0f 93       	push	r16
    1680:	1f 93       	push	r17
    1682:	18 2f       	mov	r17, r24
    uint8_t statusByte;

    if (mode == rf_mode) {
    1684:	00 91 11 01 	lds	r16, 0x0111
    1688:	80 17       	cp	r24, r16
    168a:	91 f1       	breq	.+100    	; 0x16f0 <rf_setMode.1476+0x72>
        return;
    }

    disableInterrupts();
    168c:	f8 94       	cli

    /* Wait until any active transmission is finished before changing */
    do {
        statusByte = getByte();
    168e:	e9 df       	rcall	.-46     	; 0x1662 <getByte.9909>
    } while (statusByte & BIT(TX_ACTIVE));
    1690:	83 fd       	sbrc	r24, 3
    1692:	fd cf       	rjmp	.-6      	; 0x168e <rf_setMode.1476+0x10>

    /* Turn off RX */
    if (mode != RF_MODE_RECEIVING && rf_mode == RF_MODE_RECEIVING) {
    1694:	13 30       	cpi	r17, 0x03	; 3
    1696:	a1 f0       	breq	.+40     	; 0x16c0 <rf_setMode.1476+0x42>
    1698:	03 30       	cpi	r16, 0x03	; 3
    169a:	29 f4       	brne	.+10     	; 0x16a6 <rf_setMode.1476+0x28>
        sendByte(SRFOFF);
    169c:	86 e0       	ldi	r24, 0x06	; 6
    169e:	e8 df       	rcall	.-48     	; 0x1670 <sendByte.9911>
        rf_disableInterrupt();
    16a0:	89 b7       	in	r24, 0x39	; 57
    16a2:	8f 7e       	andi	r24, 0xEF	; 239
    16a4:	89 bf       	out	0x39, r24	; 57
    }

    /* Go to sleep mode (oscillator off) */
    if (mode == RF_MODE_SLEEP) {
    16a6:	11 30       	cpi	r17, 0x01	; 1
    16a8:	19 f4       	brne	.+6      	; 0x16b0 <rf_setMode.1476+0x32>
        sendByte(SXOSCOFF);
    16aa:	87 e0       	ldi	r24, 0x07	; 7
    16ac:	e1 df       	rcall	.-62     	; 0x1670 <sendByte.9911>
    16ae:	1d c0       	rjmp	.+58     	; 0x16ea <rf_setMode.1476+0x6c>
    }

    /* Disable radio completely, ans configure pins for sleep */
    if (mode == RF_MODE_OFF) {
    16b0:	11 23       	and	r17, r17
    16b2:	49 f4       	brne	.+18     	; 0x16c6 <rf_setMode.1476+0x48>
        disableVreg();
    16b4:	c5 98       	cbi	0x18, 5	; 24


/** Set pins to allow Atmega to go to low power sleep. **/
static inline void unsetPins(void)
{
    RF_FIFOP_DDR |= BIT(RF_FIFOP);
    16b6:	14 9a       	sbi	0x02, 4	; 2
    RF_FIFO_DDR |= BIT(RF_FIFO);
    16b8:	15 9a       	sbi	0x02, 5	; 2
    RF_SFD_DDR |= BIT(RF_SFD);
    16ba:	8c 9a       	sbi	0x11, 4	; 17
    RF_CCA_DDR |= BIT(RF_CCA);
    16bc:	8d 9a       	sbi	0x11, 5	; 17
    16be:	15 c0       	rjmp	.+42     	; 0x16ea <rf_setMode.1476+0x6c>
        disableVreg();
        unsetPins();
    }

    /* Go to standby mode (oscillator on), if not already there */
    if ((mode == RF_MODE_RECEIVING && rf_mode != RF_MODE_STANDBY) ||
    16c0:	02 30       	cpi	r16, 0x02	; 2
    16c2:	29 f4       	brne	.+10     	; 0x16ce <rf_setMode.1476+0x50>
    16c4:	0b c0       	rjmp	.+22     	; 0x16dc <rf_setMode.1476+0x5e>
    16c6:	12 30       	cpi	r17, 0x02	; 2
    16c8:	39 f4       	brne	.+14     	; 0x16d8 <rf_setMode.1476+0x5a>
    16ca:	03 30       	cpi	r16, 0x03	; 3
    16cc:	71 f0       	breq	.+28     	; 0x16ea <rf_setMode.1476+0x6c>
                    (mode == RF_MODE_STANDBY && rf_mode != RF_MODE_RECEIVING)) {
        sendByte(SXOSCON);
    16ce:	81 e0       	ldi	r24, 0x01	; 1
    16d0:	cf df       	rcall	.-98     	; 0x1670 <sendByte.9911>
        /* Wait for the crystal oscillator to become stable */
        do {
            statusByte = getByte();
    16d2:	c7 df       	rcall	.-114    	; 0x1662 <getByte.9909>
        } while (!(statusByte & BIT(XOSC16M_STABLE)));
    16d4:	86 ff       	sbrs	r24, 6
    16d6:	fd cf       	rjmp	.-6      	; 0x16d2 <rf_setMode.1476+0x54>
    }

    /* Turn on receiver */
    if (mode == RF_MODE_RECEIVING) {
    16d8:	13 30       	cpi	r17, 0x03	; 3
    16da:	39 f4       	brne	.+14     	; 0x16ea <rf_setMode.1476+0x6c>
        sendByte(SRXON);
    16dc:	83 e0       	ldi	r24, 0x03	; 3
    16de:	c8 df       	rcall	.-112    	; 0x1670 <sendByte.9911>
        sendByte(SFLUSHRX);
    16e0:	88 e0       	ldi	r24, 0x08	; 8
    16e2:	c6 df       	rcall	.-116    	; 0x1670 <sendByte.9911>
        rf_enableInterrupt();
    16e4:	89 b7       	in	r24, 0x39	; 57
    16e6:	80 61       	ori	r24, 0x10	; 16
    16e8:	89 bf       	out	0x39, r24	; 57
    }

    enableInterrupts();
    16ea:	78 94       	sei

    rf_mode = mode;
    16ec:	10 93 11 01 	sts	0x0111, r17
}
    16f0:	1f 91       	pop	r17
    16f2:	0f 91       	pop	r16
    16f4:	08 95       	ret

000016f6 <setRegister.9914>:

/** Enable chip select connected to radio. **/
FORCE_INLINE
static inline void spi_enableCsn(void)
{
    SPI_PORT &= ~BIT(SPI_CSN);
    16f6:	c0 98       	cbi	0x18, 0	; 24


FORCE_INLINE
static inline uint8_t spi_readWriteByte(uint8_t byte)
{
    SPDR = byte;
    16f8:	8f b9       	out	0x0f, r24	; 15
    while (!(SPSR & BIT(SPIF))) {
    16fa:	77 9b       	sbis	0x0e, 7	; 14
    16fc:	fe cf       	rjmp	.-4      	; 0x16fa <setRegister.9914+0x4>
        ;
    }
    return SPDR;
    16fe:	8f b1       	in	r24, 0x0f	; 15
 **/
static void setRegister(uint8_t address, uint16_t value)
{
    spi_enableCsn();
    spi_readWriteByte(address);
    spi_readWriteByte((uint8_t) ((value) >> 8));
    1700:	87 2f       	mov	r24, r23
    1702:	99 27       	eor	r25, r25


FORCE_INLINE
static inline uint8_t spi_readWriteByte(uint8_t byte)
{
    SPDR = byte;
    1704:	8f b9       	out	0x0f, r24	; 15
    while (!(SPSR & BIT(SPIF))) {
    1706:	77 9b       	sbis	0x0e, 7	; 14
    1708:	fe cf       	rjmp	.-4      	; 0x1706 <setRegister.9914+0x10>
        ;
    }
    return SPDR;
    170a:	8f b1       	in	r24, 0x0f	; 15


FORCE_INLINE
static inline uint8_t spi_readWriteByte(uint8_t byte)
{
    SPDR = byte;
    170c:	6f b9       	out	0x0f, r22	; 15
    while (!(SPSR & BIT(SPIF))) {
    170e:	77 9b       	sbis	0x0e, 7	; 14
    1710:	fe cf       	rjmp	.-4      	; 0x170e <setRegister.9914+0x18>
        ;
    }
    return SPDR;
    1712:	8f b1       	in	r24, 0x0f	; 15

/** Disable chip select connected to radio. **/
FORCE_INLINE
static inline void spi_disableCsn(void)
{
    SPI_PORT |= BIT(SPI_CSN);
    1714:	c0 9a       	sbi	0x18, 0	; 24
    spi_readWriteByte((uint8_t) (value));
    spi_disableCsn();
}
    1716:	08 95       	ret

00001718 <sendRamAddress.9916>:
 * Convert to format expected by radio (see datasheet) and send RAM address.
 *
 * @param address where to start writing to RAM within the CC2420.
 **/
static void sendRamAddress(uint16_t address)
{
    1718:	9c 01       	movw	r18, r24
    spi_readWriteByte(0x80 | (address & 0x7F));
    171a:	80 68       	ori	r24, 0x80	; 128


FORCE_INLINE
static inline uint8_t spi_readWriteByte(uint8_t byte)
{
    SPDR = byte;
    171c:	8f b9       	out	0x0f, r24	; 15
    while (!(SPSR & BIT(SPIF))) {
    171e:	77 9b       	sbis	0x0e, 7	; 14
    1720:	fe cf       	rjmp	.-4      	; 0x171e <sendRamAddress.9916+0x6>
        ;
    }
    return SPDR;
    1722:	8f b1       	in	r24, 0x0f	; 15
    spi_readWriteByte((address >> 1) & 0xC0);
    1724:	36 95       	lsr	r19
    1726:	27 95       	ror	r18
    1728:	82 2f       	mov	r24, r18
    172a:	80 7c       	andi	r24, 0xC0	; 192


FORCE_INLINE
static inline uint8_t spi_readWriteByte(uint8_t byte)
{
    SPDR = byte;
    172c:	8f b9       	out	0x0f, r24	; 15
    while (!(SPSR & BIT(SPIF))) {
    172e:	77 9b       	sbis	0x0e, 7	; 14
    1730:	fe cf       	rjmp	.-4      	; 0x172e <sendRamAddress.9916+0x16>
        ;
    }
    return SPDR;
    1732:	8f b1       	in	r24, 0x0f	; 15
}
    1734:	08 95       	ret

00001736 <writeFifo.9919>:
 *
 * @param data a pointer to the data that will be written.
 * @param size how many bytes of @a data to write.
 **/
static void writeFifo(const uint8_t* data, uint8_t size)
{
    1736:	9c 01       	movw	r18, r24

/** Enable chip select connected to radio. **/
FORCE_INLINE
static inline void spi_enableCsn(void)
{
    SPI_PORT &= ~BIT(SPI_CSN);
    1738:	c0 98       	cbi	0x18, 0	; 24


FORCE_INLINE
static inline uint8_t spi_readWriteByte(uint8_t byte)
{
    SPDR = byte;
    173a:	8e e3       	ldi	r24, 0x3E	; 62
    173c:	8f b9       	out	0x0f, r24	; 15
    while (!(SPSR & BIT(SPIF))) {
    173e:	77 9b       	sbis	0x0e, 7	; 14
    1740:	fe cf       	rjmp	.-4      	; 0x173e <writeFifo.9919+0x8>
        ;
    }
    return SPDR;
    1742:	8f b1       	in	r24, 0x0f	; 15
    1744:	f9 01       	movw	r30, r18
    1746:	90 e0       	ldi	r25, 0x00	; 0
    1748:	07 c0       	rjmp	.+14     	; 0x1758 <writeFifo.9919+0x22>
    spi_enableCsn();
    spi_readWriteByte(TXFIFO);
    for (uint8_t i = 0; i < size; i++) {
        spi_readWriteByte(data[i]);
    174a:	80 81       	ld	r24, Z


FORCE_INLINE
static inline uint8_t spi_readWriteByte(uint8_t byte)
{
    SPDR = byte;
    174c:	8f b9       	out	0x0f, r24	; 15
    while (!(SPSR & BIT(SPIF))) {
    174e:	77 9b       	sbis	0x0e, 7	; 14
    1750:	fe cf       	rjmp	.-4      	; 0x174e <writeFifo.9919+0x18>
        ;
    }
    return SPDR;
    1752:	8f b1       	in	r24, 0x0f	; 15
 **/
static void writeFifo(const uint8_t* data, uint8_t size)
{
    spi_enableCsn();
    spi_readWriteByte(TXFIFO);
    for (uint8_t i = 0; i < size; i++) {
    1754:	9f 5f       	subi	r25, 0xFF	; 255
    1756:	31 96       	adiw	r30, 0x01	; 1
    1758:	96 17       	cp	r25, r22
    175a:	b8 f3       	brcs	.-18     	; 0x174a <writeFifo.9919+0x14>

/** Disable chip select connected to radio. **/
FORCE_INLINE
static inline void spi_disableCsn(void)
{
    SPI_PORT |= BIT(SPI_CSN);
    175c:	c0 9a       	sbi	0x18, 0	; 24
        spi_readWriteByte(data[i]);
    }
    spi_disableCsn();
}
    175e:	08 95       	ret

00001760 <main>:


  //---------*********TIMER**********-----------

int main(void)
{
    1760:	a5 e0       	ldi	r26, 0x05	; 5
    1762:	b0 e0       	ldi	r27, 0x00	; 0
    1764:	e5 eb       	ldi	r30, 0xB5	; 181
    1766:	fb e0       	ldi	r31, 0x0B	; 11
    1768:	d4 c4       	rjmp	.+2472   	; 0x2112 <__prologue_saves__>
 // uint8_t i;

    /* Initalise everything */
    board_init();
    176a:	84 e0       	ldi	r24, 0x04	; 4
    176c:	8b bb       	out	0x1b, r24	; 27
    176e:	9f ef       	ldi	r25, 0xFF	; 255
    1770:	9a bb       	out	0x1a, r25	; 26
    1772:	81 e0       	ldi	r24, 0x01	; 1
    1774:	88 bb       	out	0x18, r24	; 24
    1776:	97 bb       	out	0x17, r25	; 23
    1778:	22 e0       	ldi	r18, 0x02	; 2
    177a:	25 bb       	out	0x15, r18	; 21
    177c:	94 bb       	out	0x14, r25	; 20
    177e:	83 e0       	ldi	r24, 0x03	; 3
    1780:	82 bb       	out	0x12, r24	; 18
    1782:	8c ef       	ldi	r24, 0xFC	; 252
    1784:	81 bb       	out	0x11, r24	; 17
    1786:	23 b9       	out	0x03, r18	; 3
    1788:	8d ef       	ldi	r24, 0xFD	; 253
    178a:	82 b9       	out	0x02, r24	; 2
    178c:	10 92 62 00 	sts	0x0062, r1
    1790:	90 93 61 00 	sts	0x0061, r25
    1794:	10 92 65 00 	sts	0x0065, r1
    1798:	8f e1       	ldi	r24, 0x1F	; 31
    179a:	80 93 64 00 	sts	0x0064, r24

	//Ensure adc port is input
	PORTF = 0x00; 
    179e:	10 92 62 00 	sts	0x0062, r1
    DDRF  = 0x00;
    17a2:	10 92 61 00 	sts	0x0061, r1
	
	//Turn off sensors and disable mux 
	sensor_OUT;
    17a6:	d4 9a       	sbi	0x1a, 4	; 26
    sensor_off;
    17a8:	dc 98       	cbi	0x1b, 4	; 27
	
	  //---------*********TIMER**********-----------
    // enable timer overflow interrupt for both Timer0 and Timer1
    TIMSK=(1<<TOIE0) | (1<<TOIE1);
    17aa:	85 e0       	ldi	r24, 0x05	; 5
    17ac:	87 bf       	out	0x37, r24	; 55

    // set timer0 counter initial value to 0
    TCNT0=0x00;
    17ae:	12 be       	out	0x32, r1	; 50
    // start timer0 with /1024 prescaler
    TCCR0 = (1<<CS02) | (1<<CS00);
    17b0:	83 bf       	out	0x33, r24	; 51
    // lets turn on 16 bit timer1 also
    TCCR1B |= (1 << CS10) | (1 << CS12);
    17b2:	8e b5       	in	r24, 0x2e	; 46
    17b4:	85 60       	ori	r24, 0x05	; 5
    17b6:	8e bd       	out	0x2e, r24	; 46

    // enable interrupts
    sei(); 
    17b8:	78 94       	sei
	
	  //---------*********TIMER**********-----------

	
	
	uc_sw_MUX_BEND_EN_OUT;
    17ba:	a2 9a       	sbi	0x14, 2	; 20
	uc_sw_MUX_BEND_EN_HI;//Interface Disabled
    17bc:	aa 9a       	sbi	0x15, 2	; 21
	uc_sw_MUX_ACC_EN_OUT;
    17be:	a3 9a       	sbi	0x14, 3	; 20
	uc_sw_MUX_ACC_EN_HI;// Interface Disabled
    17c0:	ab 9a       	sbi	0x15, 3	; 21
	
	uc_sw_MUX_MUX_cSA_CSB_OUT;
    17c2:	a1 9a       	sbi	0x14, 1	; 20
	uc_sw_MUX_MUX_cSA_CSB_LO;
    17c4:	a9 98       	cbi	0x15, 1	; 21
	
	uc_sw_MUX_MUX_WR_OUT;
    17c6:	a0 9a       	sbi	0x14, 0	; 20
	uc_sw_MUX_MUX_WR_LO;
    17c8:	a8 98       	cbi	0x15, 0	; 21
	
	adxl345_spi_init();
    17ca:	06 de       	rcall	.-1012   	; 0x13d8 <adxl345_spi_init>
	uc_sw_MUX_A0_OUT;
    17cc:	a7 9a       	sbi	0x14, 7	; 20
	uc_sw_MUX_A0_LO;
    17ce:	af 98       	cbi	0x15, 7	; 21
	uc_sw_MUX_A1_OUT;
    17d0:	a6 9a       	sbi	0x14, 6	; 20
	uc_sw_MUX_A1_LO;
    17d2:	ae 98       	cbi	0x15, 6	; 21
	uc_sw_MUX_A2_OUT;
    17d4:	a5 9a       	sbi	0x14, 5	; 20
	uc_sw_MUX_A2_LO;
    17d6:	ad 98       	cbi	0x15, 5	; 21
	uc_sw_MUX_A3_OUT;
    17d8:	a4 9a       	sbi	0x14, 4	; 20
	uc_sw_MUX_A3_LO;
    17da:	ac 98       	cbi	0x15, 4	; 21

	
	
	PORTF = 0x00; 
    17dc:	10 92 62 00 	sts	0x0062, r1
    DDRF  = 0x00;
    17e0:	10 92 61 00 	sts	0x0061, r1
\******************************************************************************/

/** Set pins for communicating with radio. **/
static inline void initPins(void)
{
    RF_RESETN_DDR |= BIT(RF_RESETN);
    17e4:	8f 9a       	sbi	0x11, 7	; 17
    RF_RESETN_PORT |= BIT(RF_RESETN);
    17e6:	97 9a       	sbi	0x12, 7	; 18
    RF_VREG_DDR |= BIT(RF_VREG_EN);
    17e8:	bd 9a       	sbi	0x17, 5	; 23
    RF_FIFOP_DDR &= ~BIT(RF_FIFOP);
    17ea:	14 98       	cbi	0x02, 4	; 2
    RF_FIFO_DDR &= ~BIT(RF_FIFO);
    17ec:	15 98       	cbi	0x02, 5	; 2
    RF_SFD_DDR &= ~BIT(RF_SFD);
    17ee:	8c 98       	cbi	0x11, 4	; 17
    RF_CCA_DDR &= ~BIT(RF_CCA);
    17f0:	8d 98       	cbi	0x11, 5	; 17
\******************************************************************************/

/** Enables SPI, selects master mode, clock rate F_CPU / 2, and SPI mode 0. **/
static inline void spi_init(void)
{
    SPI_PORT |= BIT(SPI_MOSI) | BIT(SPI_SCLK) | BIT(SPI_CSN) | BIT(SPI_MISO);
    17f2:	88 b3       	in	r24, 0x18	; 24
    17f4:	8f 60       	ori	r24, 0x0F	; 15
    17f6:	88 bb       	out	0x18, r24	; 24

    SPCR = BIT(SPE) | BIT(MSTR);
    17f8:	80 e5       	ldi	r24, 0x50	; 80
    17fa:	8d b9       	out	0x0d, r24	; 13

/** Disable chip select connected to radio. **/
FORCE_INLINE
static inline void spi_disableCsn(void)
{
    SPI_PORT |= BIT(SPI_CSN);
    17fc:	c0 9a       	sbi	0x18, 0	; 24

    initPins();
    spi_init();

    /* Turn on regulator and reset chip */
    enableVreg();
    17fe:	c5 9a       	sbi	0x18, 5	; 24
    milliseconds can be achieved.
 */
void
_delay_loop_2(uint16_t __count)
{
	__asm__ volatile (
    1800:	80 eb       	ldi	r24, 0xB0	; 176
    1802:	94 e0       	ldi	r25, 0x04	; 4
    1804:	01 97       	sbiw	r24, 0x01	; 1
    1806:	f1 f7       	brne	.-4      	; 0x1804 <main+0xa4>
    delay_us(600);
    enableReset();
    1808:	97 98       	cbi	0x12, 7	; 18
    180a:	80 ed       	ldi	r24, 0xD0	; 208
    180c:	97 e0       	ldi	r25, 0x07	; 7
    180e:	01 97       	sbiw	r24, 0x01	; 1
    1810:	f1 f7       	brne	.-4      	; 0x180e <main+0xae>
    delay_us(1000);
    disableReset();
    1812:	97 9a       	sbi	0x12, 7	; 18
    1814:	88 ee       	ldi	r24, 0xE8	; 232
    1816:	93 e0       	ldi	r25, 0x03	; 3
    1818:	01 97       	sbiw	r24, 0x01	; 1
    181a:	f1 f7       	brne	.-4      	; 0x1818 <main+0xb8>
    /* Calculate frequency from channel number (see datasheet) */
    f = ((uint16_t)(channel - 11) * 5) + 357;
    f |= 0x4000;        /* To set bits in rest of register */

    /* Write it to the CC2420 */
    disableInterrupts();
    181c:	f8 94       	cli
    setRegister(FSCTRL, f);
    181e:	88 e1       	ldi	r24, 0x18	; 24
    1820:	62 e9       	ldi	r22, 0x92	; 146
    1822:	71 e4       	ldi	r23, 0x41	; 65
    1824:	68 df       	rcall	.-304    	; 0x16f6 <setRegister.9914>
    enableInterrupts();
    1826:	78 94       	sei
            (power != RF_PWR_NEG15) &&
            (power != RF_PWR_NEG25)) {
        power = RF_PWR_MAX;
    }
    
    rf_power = power;
    1828:	8f ef       	ldi	r24, 0xFF	; 255
    182a:	80 93 1c 01 	sts	0x011C, r24

    disableInterrupts();
    182e:	f8 94       	cli
    setRegister(TXCTRL, 0xA000 | (uint16_t)rf_power);
    1830:	85 e1       	ldi	r24, 0x15	; 21
    1832:	6f ef       	ldi	r22, 0xFF	; 255
    1834:	70 ea       	ldi	r23, 0xA0	; 160
    1836:	5f df       	rcall	.-322    	; 0x16f6 <setRegister.9914>
    enableInterrupts();
    1838:	78 94       	sei

    /* Set the output power */
    rf_setPower(power);

    /* Initialize the FIFOP external interrupt */
    rf_initInterrupt();
    183a:	8a b7       	in	r24, 0x3a	; 58
    183c:	83 60       	ori	r24, 0x03	; 3
    183e:	8a bf       	out	0x3a, r24	; 58
    1840:	80 e1       	ldi	r24, 0x10	; 16
    1842:	88 bf       	out	0x38, r24	; 56

    /* Disable interrupts while accessing SPI */
    disableInterrupts();
    1844:	f8 94       	cli

    /* Enable oscillator */
    sendByte(SXOSCON);
    1846:	81 e0       	ldi	r24, 0x01	; 1
    1848:	13 df       	rcall	.-474    	; 0x1670 <sendByte.9911>

    /* Set correlation threshold to 20 */
    setRegister(MDMCTRL1, 0x0500);
    184a:	82 e1       	ldi	r24, 0x12	; 18
    184c:	60 e0       	ldi	r22, 0x00	; 0
    184e:	75 e0       	ldi	r23, 0x05	; 5
    1850:	52 df       	rcall	.-348    	; 0x16f6 <setRegister.9914>

    /* Set RXBPF to 1 as recommended in datasheet */
    setRegister(RXCTRL1, 0x2A56);
    1852:	87 e1       	ldi	r24, 0x17	; 23
    1854:	66 e5       	ldi	r22, 0x56	; 86
    1856:	7a e2       	ldi	r23, 0x2A	; 42
    1858:	4e df       	rcall	.-356    	; 0x16f6 <setRegister.9914>

    /* Set the FIFOP threshold to maximum (127 bytes) */
    setRegister(IOCFG0, 0x007F);
    185a:	8c e1       	ldi	r24, 0x1C	; 28
    185c:	6f e7       	ldi	r22, 0x7F	; 127
    185e:	70 e0       	ldi	r23, 0x00	; 0
    1860:	4a df       	rcall	.-364    	; 0x16f6 <setRegister.9914>

    /* Disable RXFIFO_PROTECTION */
    setRegister(SECCTRL0, 0x01C4);
    1862:	89 e1       	ldi	r24, 0x19	; 25
    1864:	64 ec       	ldi	r22, 0xC4	; 196
    1866:	71 e0       	ldi	r23, 0x01	; 1
    1868:	46 df       	rcall	.-372    	; 0x16f6 <setRegister.9914>

    txSeqNumber = 0;
    186a:	10 92 19 01 	sts	0x0119, r1

    /* Wait for the crystal oscillator to become stable */
    do {
        statusByte = getByte();
    186e:	f9 de       	rcall	.-526    	; 0x1662 <getByte.9909>
    } while (!(statusByte & BIT(XOSC16M_STABLE)));
    1870:	86 ff       	sbrs	r24, 6
    1872:	fd cf       	rjmp	.-6      	; 0x186e <main+0x10e>

/** Enable chip select connected to radio. **/
FORCE_INLINE
static inline void spi_enableCsn(void)
{
    SPI_PORT &= ~BIT(SPI_CSN);
    1874:	c0 98       	cbi	0x18, 0	; 24

    /* Write addresses to RAM. The oscillator must be running for this. */
    spi_enableCsn();
    sendRamAddress(RAM_SHORTADR);
    1876:	8a e6       	ldi	r24, 0x6A	; 106
    1878:	91 e0       	ldi	r25, 0x01	; 1
    187a:	4e df       	rcall	.-356    	; 0x1718 <sendRamAddress.9916>


FORCE_INLINE
static inline uint8_t spi_readWriteByte(uint8_t byte)
{
    SPDR = byte;
    187c:	89 e7       	ldi	r24, 0x79	; 121
    187e:	8f b9       	out	0x0f, r24	; 15
    while (!(SPSR & BIT(SPIF))) {
    1880:	77 9b       	sbis	0x0e, 7	; 14
    1882:	fe cf       	rjmp	.-4      	; 0x1880 <main+0x120>
        ;
    }
    return SPDR;
    1884:	8f b1       	in	r24, 0x0f	; 15


FORCE_INLINE
static inline uint8_t spi_readWriteByte(uint8_t byte)
{
    SPDR = byte;
    1886:	89 e7       	ldi	r24, 0x79	; 121
    1888:	8f b9       	out	0x0f, r24	; 15
    while (!(SPSR & BIT(SPIF))) {
    188a:	77 9b       	sbis	0x0e, 7	; 14
    188c:	fe cf       	rjmp	.-4      	; 0x188a <main+0x12a>
        ;
    }
    return SPDR;
    188e:	8f b1       	in	r24, 0x0f	; 15

/** Disable chip select connected to radio. **/
FORCE_INLINE
static inline void spi_disableCsn(void)
{
    SPI_PORT |= BIT(SPI_CSN);
    1890:	c0 9a       	sbi	0x18, 0	; 24

/** Enable chip select connected to radio. **/
FORCE_INLINE
static inline void spi_enableCsn(void)
{
    SPI_PORT &= ~BIT(SPI_CSN);
    1892:	c0 98       	cbi	0x18, 0	; 24
    spi_readWriteByte(RF_LOCAL_ADDRESS & 0xFF);  /* LSB first */
    spi_readWriteByte(RF_LOCAL_ADDRESS >> 8);
    spi_disableCsn();

    spi_enableCsn();
    sendRamAddress(RAM_PANID);
    1894:	88 e6       	ldi	r24, 0x68	; 104
    1896:	91 e0       	ldi	r25, 0x01	; 1
    1898:	3f df       	rcall	.-386    	; 0x1718 <sendRamAddress.9916>


FORCE_INLINE
static inline uint8_t spi_readWriteByte(uint8_t byte)
{
    SPDR = byte;
    189a:	85 eb       	ldi	r24, 0xB5	; 181
    189c:	8f b9       	out	0x0f, r24	; 15
    while (!(SPSR & BIT(SPIF))) {
    189e:	77 9b       	sbis	0x0e, 7	; 14
    18a0:	fe cf       	rjmp	.-4      	; 0x189e <main+0x13e>
        ;
    }
    return SPDR;
    18a2:	8f b1       	in	r24, 0x0f	; 15


FORCE_INLINE
static inline uint8_t spi_readWriteByte(uint8_t byte)
{
    SPDR = byte;
    18a4:	81 e3       	ldi	r24, 0x31	; 49
    18a6:	8f b9       	out	0x0f, r24	; 15
    while (!(SPSR & BIT(SPIF))) {
    18a8:	77 9b       	sbis	0x0e, 7	; 14
    18aa:	fe cf       	rjmp	.-4      	; 0x18a8 <main+0x148>
        ;
    }
    return SPDR;
    18ac:	8f b1       	in	r24, 0x0f	; 15

/** Disable chip select connected to radio. **/
FORCE_INLINE
static inline void spi_disableCsn(void)
{
    SPI_PORT |= BIT(SPI_CSN);
    18ae:	c0 9a       	sbi	0x18, 0	; 24
    spi_readWriteByte(RF_NETWORK_ID & 0xFF);
    spi_readWriteByte(RF_NETWORK_ID >> 8);
    spi_disableCsn();

    /* Disable oscillator to save power */
    sendByte(SXOSCOFF);
    18b0:	87 e0       	ldi	r24, 0x07	; 7
    18b2:	de de       	rcall	.-580    	; 0x1670 <sendByte.9911>

    enableInterrupts();
    18b4:	78 94       	sei
}


void rf_setReceiveBuffer(volatile rf_msgType* receiveBuffer)
{
    buffer = receiveBuffer;
    18b6:	81 e2       	ldi	r24, 0x21	; 33
    18b8:	91 e0       	ldi	r25, 0x01	; 1
    18ba:	90 93 1b 01 	sts	0x011B, r25
    18be:	80 93 1a 01 	sts	0x011A, r24
	rf_init(RF_CHANNEL_CENTRE, RF_PWR_MAX);
	rf_setReceiveBuffer(&receivedMsg);
	//rf_setMode(RF_MODE_RECEIVING);
	sensor_on;
    18c2:	dc 9a       	sbi	0x1b, 4	; 27
{
/* See avr-libc docs on <util/setbaud.h> for explanation of this code */
#define BAUD UART_BAUDRATE
#define BAUD_TOL UART_BAUD_TOL
#include <util/setbaud.h>
    UBRR0H = UBRRH_VALUE;
    18c4:	10 92 90 00 	sts	0x0090, r1
    UBRR0L = UBRRL_VALUE;
    18c8:	19 b8       	out	0x09, r1	; 9
#if USE_2X
    UCSR0A |= BIT(U2X0);
    18ca:	59 9a       	sbi	0x0b, 1	; 11

#undef BAUD
#undef BAUD_TOL

    /* Set parity, stop bits (one), and character size (eight) */
    UCSR0C = BIT(UCSZ01) | BIT(UCSZ00);
    18cc:	86 e0       	ldi	r24, 0x06	; 6
    18ce:	80 93 95 00 	sts	0x0095, r24
#ifdef UART_USE_CALLBACK
    /* Enable RX interrupt if application wants it */
    UCSR0B |= BIT(RXCIE0) | BIT(RXEN0) | BIT(TXEN0);
    enableInterrupts();
#else
    UCSR0B |= BIT(RXEN0) | BIT(TXEN0);
    18d2:	8a b1       	in	r24, 0x0a	; 10
    18d4:	88 61       	ori	r24, 0x18	; 24
    18d6:	8a b9       	out	0x0a, r24	; 10

    uart_enable();

#ifdef _STDIO_H_
    /* USART0 becomes stdin and stdout with avr-libc */
    stdout = &uart0;
    18d8:	83 e0       	ldi	r24, 0x03	; 3
    18da:	91 e0       	ldi	r25, 0x01	; 1
    18dc:	90 93 c2 01 	sts	0x01C2, r25
    18e0:	80 93 c1 01 	sts	0x01C1, r24
    stdin = &uart0;
    18e4:	90 93 c0 01 	sts	0x01C0, r25
    18e8:	80 93 bf 01 	sts	0x01BF, r24
    stderr = &uart0;
    18ec:	90 93 c4 01 	sts	0x01C4, r25
    18f0:	80 93 c3 01 	sts	0x01C3, r24
	uart_init();


	uc_sw_MUX_ACC_EN_LO;
    18f4:	ab 98       	cbi	0x15, 3	; 21
    18f6:	88 ee       	ldi	r24, 0xE8	; 232
    18f8:	93 e0       	ldi	r25, 0x03	; 3
    18fa:	01 97       	sbiw	r24, 0x01	; 1
    18fc:	f1 f7       	brne	.-4      	; 0x18fa <main+0x19a>
	delay_us(500);
	
for(j=0;j<16;j++)
    18fe:	10 92 9c 01 	sts	0x019C, r1
    1902:	08 ec       	ldi	r16, 0xC8	; 200
    1904:	10 e0       	ldi	r17, 0x00	; 0
    1906:	28 c0       	rjmp	.+80     	; 0x1958 <main+0x1f8>
{


	if(j&0x01)uc_sw_MUX_A0_HI;
    1908:	80 ff       	sbrs	r24, 0
    190a:	02 c0       	rjmp	.+4      	; 0x1910 <main+0x1b0>
    190c:	af 9a       	sbi	0x15, 7	; 21
    190e:	01 c0       	rjmp	.+2      	; 0x1912 <main+0x1b2>
	else uc_sw_MUX_A0_LO;
    1910:	af 98       	cbi	0x15, 7	; 21
	if(j&0x02)uc_sw_MUX_A1_HI;
    1912:	81 ff       	sbrs	r24, 1
    1914:	02 c0       	rjmp	.+4      	; 0x191a <main+0x1ba>
    1916:	ae 9a       	sbi	0x15, 6	; 21
    1918:	01 c0       	rjmp	.+2      	; 0x191c <main+0x1bc>
	else uc_sw_MUX_A1_LO;
    191a:	ae 98       	cbi	0x15, 6	; 21
	if(j&0x04)uc_sw_MUX_A2_HI;
    191c:	82 ff       	sbrs	r24, 2
    191e:	02 c0       	rjmp	.+4      	; 0x1924 <main+0x1c4>
    1920:	ad 9a       	sbi	0x15, 5	; 21
    1922:	01 c0       	rjmp	.+2      	; 0x1926 <main+0x1c6>
	else uc_sw_MUX_A2_LO;
    1924:	ad 98       	cbi	0x15, 5	; 21
	if(j&0x08)uc_sw_MUX_A3_HI;
    1926:	83 ff       	sbrs	r24, 3
    1928:	02 c0       	rjmp	.+4      	; 0x192e <main+0x1ce>
    192a:	ac 9a       	sbi	0x15, 4	; 21
    192c:	01 c0       	rjmp	.+2      	; 0x1930 <main+0x1d0>
	else uc_sw_MUX_A3_LO;
    192e:	ac 98       	cbi	0x15, 4	; 21
    1930:	c8 01       	movw	r24, r16
    1932:	01 97       	sbiw	r24, 0x01	; 1
    1934:	f1 f7       	brne	.-4      	; 0x1932 <main+0x1d2>
	delay_us(100);
	adxl345_spi_write(0x31,0x08);
    1936:	81 e3       	ldi	r24, 0x31	; 49
    1938:	68 e0       	ldi	r22, 0x08	; 8
    193a:	68 dd       	rcall	.-1328   	; 0x140c <adxl345_spi_write.1523>
	adxl345_spi_write(0x31,0x08);	
    193c:	81 e3       	ldi	r24, 0x31	; 49
    193e:	68 e0       	ldi	r22, 0x08	; 8
    1940:	65 dd       	rcall	.-1334   	; 0x140c <adxl345_spi_write.1523>
	
	adxl345_spi_write(0x2D,0x08);		// start measurement
    1942:	8d e2       	ldi	r24, 0x2D	; 45
    1944:	68 e0       	ldi	r22, 0x08	; 8
    1946:	62 dd       	rcall	.-1340   	; 0x140c <adxl345_spi_write.1523>
	adxl345_spi_write(0x31,0x08);
    1948:	81 e3       	ldi	r24, 0x31	; 49
    194a:	68 e0       	ldi	r22, 0x08	; 8
    194c:	5f dd       	rcall	.-1346   	; 0x140c <adxl345_spi_write.1523>


	uc_sw_MUX_ACC_EN_LO;
	delay_us(500);
	
for(j=0;j<16;j++)
    194e:	80 91 9c 01 	lds	r24, 0x019C
    1952:	8f 5f       	subi	r24, 0xFF	; 255
    1954:	80 93 9c 01 	sts	0x019C, r24
    1958:	80 91 9c 01 	lds	r24, 0x019C
    195c:	80 31       	cpi	r24, 0x10	; 16
    195e:	a0 f2       	brcs	.-88     	; 0x1908 <main+0x1a8>
		uc_sw_MUX_BEND_EN_HI;//Interface Disabled
		uc_sw_MUX_ACC_EN_HI;//Disconnect interface
	
		
	//read accelerometers s
	printf("%u.%.2u,",overflowCount,timer0_ticks);
    1960:	01 ee       	ldi	r16, 0xE1	; 225
    1962:	20 2e       	mov	r2, r16
    1964:	00 e0       	ldi	r16, 0x00	; 0
    1966:	30 2e       	mov	r3, r16
			uc_sw_MUX_ACC_EN_LO;//Connect interface
			delay_us(2);
			
			
		txBuffer[0+6*j+3] = adxl345_spi_read(0xB2);
		txBuffer[1+6*j+3] = adxl345_spi_read(0xB3);	
    1968:	16 e0       	ldi	r17, 0x06	; 6
    196a:	f1 2e       	mov	r15, r17
        txBuffer[2+6*j+3] = adxl345_spi_read(0xB4);
    196c:	b3 e0       	ldi	r27, 0x03	; 3
    196e:	eb 2e       	mov	r14, r27
				for (i=0;i<3;i++)
		{
		
		if(0x80&txBuffer[1+2*i+6*j+3])tempresult=((((txBuffer[0+2*i+6*j+3])^0xFF)+1)+256*((((txBuffer[2*i+1+6*j+3])^0xFF))))*(-1.0/256);
		else tempresult=(txBuffer[2*i+6*j+3]+256*(txBuffer[2*i+1+6*j+3]))*(1.0/256);
		snprintf(&Bdata[0],9,"%f",tempresult);
    1970:	a1 ea       	ldi	r26, 0xA1	; 161
    1972:	ca 2e       	mov	r12, r26
    1974:	a1 e0       	ldi	r26, 0x01	; 1
    1976:	da 2e       	mov	r13, r26
    1978:	f9 e0       	ldi	r31, 0x09	; 9
    197a:	af 2e       	mov	r10, r31
    197c:	b1 2c       	mov	r11, r1
    197e:	e0 e0       	ldi	r30, 0x00	; 0
    1980:	8e 2e       	mov	r8, r30
    1982:	e1 e0       	ldi	r30, 0x01	; 1
    1984:	9e 2e       	mov	r9, r30
    } while (!(statusByte & BIT(RSSI_VALID)));
#endif

    /* Write packet to the TX FIFO (footer is appended automatically) */
    writeFifo(&packetLength, 1);                    /* Packet Length */
    writeFifo((uint8_t*)&frameControlField, 2);     /* Frame control field */
    1986:	74 e0       	ldi	r23, 0x04	; 4
    1988:	67 2e       	mov	r6, r23
    198a:	71 2c       	mov	r7, r1
    198c:	6c 0e       	add	r6, r28
    198e:	7d 1e       	adc	r7, r29
    writeFifo(&txSeqNumber, 1);                     /* Sequence Number */
    writeFifo((uint8_t*)&panId, 2);                 /* PAN ID */
    writeFifo((uint8_t*)&address, 2);               /* Destination address */
    1990:	62 e0       	ldi	r22, 0x02	; 2
    1992:	46 2e       	mov	r4, r22
    1994:	51 2c       	mov	r5, r1
    1996:	4c 0e       	add	r4, r28
    1998:	5d 1e       	adc	r5, r29
	adxl345_spi_write(0x2D,0x08);		// start measurement
	adxl345_spi_write(0x31,0x08);
	}
    for (;;) {
	
		uc_sw_MUX_BEND_EN_HI;//Interface Disabled
    199a:	aa 9a       	sbi	0x15, 2	; 21
		uc_sw_MUX_ACC_EN_HI;//Disconnect interface
    199c:	ab 9a       	sbi	0x15, 3	; 21
	
		
	//read accelerometers s
	printf("%u.%.2u,",overflowCount,timer0_ticks);
    199e:	80 91 bd 01 	lds	r24, 0x01BD
    19a2:	90 91 be 01 	lds	r25, 0x01BE
    19a6:	20 91 bc 01 	lds	r18, 0x01BC
    19aa:	00 d0       	rcall	.+0      	; 0x19ac <main+0x24c>
    19ac:	00 d0       	rcall	.+0      	; 0x19ae <main+0x24e>
    19ae:	00 d0       	rcall	.+0      	; 0x19b0 <main+0x250>
    19b0:	ed b7       	in	r30, 0x3d	; 61
    19b2:	fe b7       	in	r31, 0x3e	; 62
    19b4:	31 96       	adiw	r30, 0x01	; 1
    19b6:	ad b7       	in	r26, 0x3d	; 61
    19b8:	be b7       	in	r27, 0x3e	; 62
    19ba:	12 96       	adiw	r26, 0x02	; 2
    19bc:	3c 92       	st	X, r3
    19be:	2e 92       	st	-X, r2
    19c0:	11 97       	sbiw	r26, 0x01	; 1
    19c2:	93 83       	std	Z+3, r25	; 0x03
    19c4:	82 83       	std	Z+2, r24	; 0x02
    19c6:	30 e0       	ldi	r19, 0x00	; 0
    19c8:	35 83       	std	Z+5, r19	; 0x05
    19ca:	24 83       	std	Z+4, r18	; 0x04
    19cc:	35 d5       	rcall	.+2666   	; 0x2438 <printf_P>
		for(j=0;j<16;j++)
    19ce:	10 92 9c 01 	sts	0x019C, r1
    19d2:	ed b7       	in	r30, 0x3d	; 61
    19d4:	fe b7       	in	r31, 0x3e	; 62
    19d6:	36 96       	adiw	r30, 0x06	; 6
    19d8:	0f b6       	in	r0, 0x3f	; 63
    19da:	f8 94       	cli
    19dc:	fe bf       	out	0x3e, r31	; 62
    19de:	0f be       	out	0x3f, r0	; 63
    19e0:	ed bf       	out	0x3d, r30	; 61
    19e2:	3c c1       	rjmp	.+632    	; 0x1c5c <main+0x4fc>
		{
			if(j&0x01)uc_sw_MUX_A0_HI;
    19e4:	0e 2f       	mov	r16, r30
    19e6:	10 e0       	ldi	r17, 0x00	; 0
    19e8:	e0 ff       	sbrs	r30, 0
    19ea:	02 c0       	rjmp	.+4      	; 0x19f0 <main+0x290>
    19ec:	af 9a       	sbi	0x15, 7	; 21
    19ee:	01 c0       	rjmp	.+2      	; 0x19f2 <main+0x292>
			else uc_sw_MUX_A0_LO;
    19f0:	af 98       	cbi	0x15, 7	; 21
			if(j&0x02)uc_sw_MUX_A1_HI;
    19f2:	01 ff       	sbrs	r16, 1
    19f4:	02 c0       	rjmp	.+4      	; 0x19fa <main+0x29a>
    19f6:	ae 9a       	sbi	0x15, 6	; 21
    19f8:	01 c0       	rjmp	.+2      	; 0x19fc <main+0x29c>
			else uc_sw_MUX_A1_LO;
    19fa:	ae 98       	cbi	0x15, 6	; 21
			if(j&0x04)uc_sw_MUX_A2_HI;
    19fc:	02 ff       	sbrs	r16, 2
    19fe:	02 c0       	rjmp	.+4      	; 0x1a04 <main+0x2a4>
    1a00:	ad 9a       	sbi	0x15, 5	; 21
    1a02:	01 c0       	rjmp	.+2      	; 0x1a06 <main+0x2a6>
			else uc_sw_MUX_A2_LO;
    1a04:	ad 98       	cbi	0x15, 5	; 21
			if(j&0x08)uc_sw_MUX_A3_HI;
    1a06:	03 ff       	sbrs	r16, 3
    1a08:	02 c0       	rjmp	.+4      	; 0x1a0e <main+0x2ae>
    1a0a:	ac 9a       	sbi	0x15, 4	; 21
    1a0c:	01 c0       	rjmp	.+2      	; 0x1a10 <main+0x2b0>
			else uc_sw_MUX_A3_LO;
    1a0e:	ac 98       	cbi	0x15, 4	; 21
    can be achieved.
*/
void
_delay_loop_1(uint8_t __count)
{
	__asm__ volatile (
    1a10:	85 e0       	ldi	r24, 0x05	; 5
    1a12:	8a 95       	dec	r24
    1a14:	f1 f7       	brne	.-4      	; 0x1a12 <main+0x2b2>
			delay_us(2);
			uc_sw_MUX_ACC_EN_LO;//Connect interface
    1a16:	ab 98       	cbi	0x15, 3	; 21
    1a18:	85 e0       	ldi	r24, 0x05	; 5
    1a1a:	8a 95       	dec	r24
    1a1c:	f1 f7       	brne	.-4      	; 0x1a1a <main+0x2ba>
			delay_us(2);
			
			
		txBuffer[0+6*j+3] = adxl345_spi_read(0xB2);
    1a1e:	82 eb       	ldi	r24, 0xB2	; 178
    1a20:	28 dd       	rcall	.-1456   	; 0x1472 <adxl345_spi_read.1525>
    1a22:	f8 01       	movw	r30, r16
    1a24:	ee 0f       	add	r30, r30
    1a26:	ff 1f       	adc	r31, r31
    1a28:	e0 0f       	add	r30, r16
    1a2a:	f1 1f       	adc	r31, r17
    1a2c:	ee 0f       	add	r30, r30
    1a2e:	ff 1f       	adc	r31, r31
    1a30:	e8 5d       	subi	r30, 0xD8	; 216
    1a32:	fe 4f       	sbci	r31, 0xFE	; 254
    1a34:	83 83       	std	Z+3, r24	; 0x03
		txBuffer[1+6*j+3] = adxl345_spi_read(0xB3);	
    1a36:	80 91 9c 01 	lds	r24, 0x019C
    1a3a:	8f 9d       	mul	r24, r15
    1a3c:	80 01       	movw	r16, r0
    1a3e:	11 24       	eor	r1, r1
    1a40:	0c 5f       	subi	r16, 0xFC	; 252
    1a42:	1f 4f       	sbci	r17, 0xFF	; 255
    1a44:	83 eb       	ldi	r24, 0xB3	; 179
    1a46:	15 dd       	rcall	.-1494   	; 0x1472 <adxl345_spi_read.1525>
    1a48:	08 5d       	subi	r16, 0xD8	; 216
    1a4a:	1e 4f       	sbci	r17, 0xFE	; 254
    1a4c:	d8 01       	movw	r26, r16
    1a4e:	8c 93       	st	X, r24
        txBuffer[2+6*j+3] = adxl345_spi_read(0xB4);
    1a50:	80 91 9c 01 	lds	r24, 0x019C
    1a54:	8e 9d       	mul	r24, r14
    1a56:	80 01       	movw	r16, r0
    1a58:	11 24       	eor	r1, r1
    1a5a:	00 0f       	add	r16, r16
    1a5c:	11 1f       	adc	r17, r17
    1a5e:	0b 5f       	subi	r16, 0xFB	; 251
    1a60:	1f 4f       	sbci	r17, 0xFF	; 255
    1a62:	84 eb       	ldi	r24, 0xB4	; 180
    1a64:	06 dd       	rcall	.-1524   	; 0x1472 <adxl345_spi_read.1525>
    1a66:	08 5d       	subi	r16, 0xD8	; 216
    1a68:	1e 4f       	sbci	r17, 0xFE	; 254
    1a6a:	f8 01       	movw	r30, r16
    1a6c:	80 83       	st	Z, r24
        txBuffer[3+6*j+3] = adxl345_spi_read(0xB5);
    1a6e:	80 91 9c 01 	lds	r24, 0x019C
    1a72:	90 e0       	ldi	r25, 0x00	; 0
    1a74:	01 96       	adiw	r24, 0x01	; 1
    1a76:	8c 01       	movw	r16, r24
    1a78:	00 0f       	add	r16, r16
    1a7a:	11 1f       	adc	r17, r17
    1a7c:	08 0f       	add	r16, r24
    1a7e:	19 1f       	adc	r17, r25
    1a80:	00 0f       	add	r16, r16
    1a82:	11 1f       	adc	r17, r17
    1a84:	85 eb       	ldi	r24, 0xB5	; 181
    1a86:	f5 dc       	rcall	.-1558   	; 0x1472 <adxl345_spi_read.1525>
    1a88:	08 5d       	subi	r16, 0xD8	; 216
    1a8a:	1e 4f       	sbci	r17, 0xFE	; 254
    1a8c:	d8 01       	movw	r26, r16
    1a8e:	8c 93       	st	X, r24
        txBuffer[4+6*j+3] = adxl345_spi_read(0xB6);
    1a90:	80 91 9c 01 	lds	r24, 0x019C
    1a94:	8f 9d       	mul	r24, r15
    1a96:	80 01       	movw	r16, r0
    1a98:	11 24       	eor	r1, r1
    1a9a:	09 5f       	subi	r16, 0xF9	; 249
    1a9c:	1f 4f       	sbci	r17, 0xFF	; 255
    1a9e:	86 eb       	ldi	r24, 0xB6	; 182
    1aa0:	e8 dc       	rcall	.-1584   	; 0x1472 <adxl345_spi_read.1525>
    1aa2:	08 5d       	subi	r16, 0xD8	; 216
    1aa4:	1e 4f       	sbci	r17, 0xFE	; 254
    1aa6:	f8 01       	movw	r30, r16
    1aa8:	80 83       	st	Z, r24
        txBuffer[5+6*j+3] = adxl345_spi_read(0xB7);
    1aaa:	80 91 9c 01 	lds	r24, 0x019C
    1aae:	8f 9d       	mul	r24, r15
    1ab0:	80 01       	movw	r16, r0
    1ab2:	11 24       	eor	r1, r1
    1ab4:	08 5f       	subi	r16, 0xF8	; 248
    1ab6:	1f 4f       	sbci	r17, 0xFF	; 255
    1ab8:	87 eb       	ldi	r24, 0xB7	; 183
    1aba:	db dc       	rcall	.-1610   	; 0x1472 <adxl345_spi_read.1525>
    1abc:	08 5d       	subi	r16, 0xD8	; 216
    1abe:	1e 4f       	sbci	r17, 0xFE	; 254
    1ac0:	d8 01       	movw	r26, r16
    1ac2:	8c 93       	st	X, r24
		uc_sw_MUX_ACC_EN_HI;//Disconnect interface
    1ac4:	ab 9a       	sbi	0x15, 3	; 21
		if(DEBUGGING_ON)
		{
				for (i=0;i<3;i++)
    1ac6:	10 92 9b 01 	sts	0x019B, r1
    1aca:	be c0       	rjmp	.+380    	; 0x1c48 <main+0x4e8>
		{
		
		if(0x80&txBuffer[1+2*i+6*j+3])tempresult=((((txBuffer[0+2*i+6*j+3])^0xFF)+1)+256*((((txBuffer[2*i+1+6*j+3])^0xFF))))*(-1.0/256);
    1acc:	9e 9d       	mul	r25, r14
    1ace:	c0 01       	movw	r24, r0
    1ad0:	11 24       	eor	r1, r1
    1ad2:	82 0f       	add	r24, r18
    1ad4:	91 1d       	adc	r25, r1
    1ad6:	88 0f       	add	r24, r24
    1ad8:	99 1f       	adc	r25, r25
    1ada:	fc 01       	movw	r30, r24
    1adc:	e4 5d       	subi	r30, 0xD4	; 212
    1ade:	fe 4f       	sbci	r31, 0xFE	; 254
    1ae0:	20 81       	ld	r18, Z
    1ae2:	dc 01       	movw	r26, r24
    1ae4:	27 ff       	sbrs	r18, 7
    1ae6:	18 c0       	rjmp	.+48     	; 0x1b18 <main+0x3b8>
    1ae8:	a8 5d       	subi	r26, 0xD8	; 216
    1aea:	be 4f       	sbci	r27, 0xFE	; 254
    1aec:	13 96       	adiw	r26, 0x03	; 3
    1aee:	6c 91       	ld	r22, X
    1af0:	60 95       	com	r22
    1af2:	70 e0       	ldi	r23, 0x00	; 0
    1af4:	6f 5f       	subi	r22, 0xFF	; 255
    1af6:	7f 4f       	sbci	r23, 0xFF	; 255
    1af8:	20 95       	com	r18
    1afa:	30 e0       	ldi	r19, 0x00	; 0
    1afc:	32 2f       	mov	r19, r18
    1afe:	22 27       	eor	r18, r18
    1b00:	62 0f       	add	r22, r18
    1b02:	73 1f       	adc	r23, r19
    1b04:	88 27       	eor	r24, r24
    1b06:	77 fd       	sbrc	r23, 7
    1b08:	80 95       	com	r24
    1b0a:	98 2f       	mov	r25, r24
    1b0c:	76 db       	rcall	.-2324   	; 0x11fa <__floatsisf>
    1b0e:	20 e0       	ldi	r18, 0x00	; 0
    1b10:	30 e0       	ldi	r19, 0x00	; 0
    1b12:	40 e8       	ldi	r20, 0x80	; 128
    1b14:	5b eb       	ldi	r21, 0xBB	; 187
    1b16:	13 c0       	rjmp	.+38     	; 0x1b3e <main+0x3de>
		else tempresult=(txBuffer[2*i+6*j+3]+256*(txBuffer[2*i+1+6*j+3]))*(1.0/256);
    1b18:	62 2f       	mov	r22, r18
    1b1a:	70 e0       	ldi	r23, 0x00	; 0
    1b1c:	76 2f       	mov	r23, r22
    1b1e:	66 27       	eor	r22, r22
    1b20:	a8 5d       	subi	r26, 0xD8	; 216
    1b22:	be 4f       	sbci	r27, 0xFE	; 254
    1b24:	13 96       	adiw	r26, 0x03	; 3
    1b26:	2c 91       	ld	r18, X
    1b28:	62 0f       	add	r22, r18
    1b2a:	71 1d       	adc	r23, r1
    1b2c:	88 27       	eor	r24, r24
    1b2e:	77 fd       	sbrc	r23, 7
    1b30:	80 95       	com	r24
    1b32:	98 2f       	mov	r25, r24
    1b34:	62 db       	rcall	.-2364   	; 0x11fa <__floatsisf>
    1b36:	20 e0       	ldi	r18, 0x00	; 0
    1b38:	30 e0       	ldi	r19, 0x00	; 0
    1b3a:	40 e8       	ldi	r20, 0x80	; 128
    1b3c:	5b e3       	ldi	r21, 0x3B	; 59
    1b3e:	98 db       	rcall	.-2256   	; 0x1270 <__mulsf3>
    1b40:	60 93 9d 01 	sts	0x019D, r22
    1b44:	70 93 9e 01 	sts	0x019E, r23
    1b48:	80 93 9f 01 	sts	0x019F, r24
    1b4c:	90 93 a0 01 	sts	0x01A0, r25
		snprintf(&Bdata[0],9,"%f",tempresult);
    1b50:	ed b7       	in	r30, 0x3d	; 61
    1b52:	fe b7       	in	r31, 0x3e	; 62
    1b54:	3a 97       	sbiw	r30, 0x0a	; 10
    1b56:	0f b6       	in	r0, 0x3f	; 63
    1b58:	f8 94       	cli
    1b5a:	fe bf       	out	0x3e, r31	; 62
    1b5c:	0f be       	out	0x3f, r0	; 63
    1b5e:	ed bf       	out	0x3d, r30	; 61
    1b60:	31 96       	adiw	r30, 0x01	; 1
    1b62:	ad b7       	in	r26, 0x3d	; 61
    1b64:	be b7       	in	r27, 0x3e	; 62
    1b66:	12 96       	adiw	r26, 0x02	; 2
    1b68:	dc 92       	st	X, r13
    1b6a:	ce 92       	st	-X, r12
    1b6c:	11 97       	sbiw	r26, 0x01	; 1
    1b6e:	b3 82       	std	Z+3, r11	; 0x03
    1b70:	a2 82       	std	Z+2, r10	; 0x02
    1b72:	95 82       	std	Z+5, r9	; 0x05
    1b74:	84 82       	std	Z+4, r8	; 0x04
    1b76:	80 91 9d 01 	lds	r24, 0x019D
    1b7a:	90 91 9e 01 	lds	r25, 0x019E
    1b7e:	a0 91 9f 01 	lds	r26, 0x019F
    1b82:	b0 91 a0 01 	lds	r27, 0x01A0
    1b86:	86 83       	std	Z+6, r24	; 0x06
    1b88:	97 83       	std	Z+7, r25	; 0x07
    1b8a:	a0 87       	std	Z+8, r26	; 0x08
    1b8c:	b1 87       	std	Z+9, r27	; 0x09
    1b8e:	77 d4       	rcall	.+2286   	; 0x247e <snprintf>
			//putchar('C');
			//putchar('C');
			//putHex_JT(j);
			//putchar(' ');
			//putchar(' ');
			putchar(Bdata[0]);
    1b90:	ed b7       	in	r30, 0x3d	; 61
    1b92:	fe b7       	in	r31, 0x3e	; 62
    1b94:	3a 96       	adiw	r30, 0x0a	; 10
    1b96:	0f b6       	in	r0, 0x3f	; 63
    1b98:	f8 94       	cli
    1b9a:	fe bf       	out	0x3e, r31	; 62
    1b9c:	0f be       	out	0x3f, r0	; 63
    1b9e:	ed bf       	out	0x3d, r30	; 61
    1ba0:	80 91 a1 01 	lds	r24, 0x01A1
    1ba4:	60 91 c1 01 	lds	r22, 0x01C1
    1ba8:	70 91 c2 01 	lds	r23, 0x01C2
    1bac:	90 e0       	ldi	r25, 0x00	; 0
    1bae:	18 d4       	rcall	.+2096   	; 0x23e0 <fputc>
			putchar(Bdata[1]);
    1bb0:	80 91 a2 01 	lds	r24, 0x01A2
    1bb4:	60 91 c1 01 	lds	r22, 0x01C1
    1bb8:	70 91 c2 01 	lds	r23, 0x01C2
    1bbc:	90 e0       	ldi	r25, 0x00	; 0
    1bbe:	10 d4       	rcall	.+2080   	; 0x23e0 <fputc>
			putchar(Bdata[2]);
    1bc0:	80 91 a3 01 	lds	r24, 0x01A3
    1bc4:	60 91 c1 01 	lds	r22, 0x01C1
    1bc8:	70 91 c2 01 	lds	r23, 0x01C2
    1bcc:	90 e0       	ldi	r25, 0x00	; 0
    1bce:	08 d4       	rcall	.+2064   	; 0x23e0 <fputc>
			putchar(Bdata[3]);
    1bd0:	80 91 a4 01 	lds	r24, 0x01A4
    1bd4:	60 91 c1 01 	lds	r22, 0x01C1
    1bd8:	70 91 c2 01 	lds	r23, 0x01C2
    1bdc:	90 e0       	ldi	r25, 0x00	; 0
    1bde:	00 d4       	rcall	.+2048   	; 0x23e0 <fputc>
			putchar(Bdata[4]);	
    1be0:	80 91 a5 01 	lds	r24, 0x01A5
    1be4:	60 91 c1 01 	lds	r22, 0x01C1
    1be8:	70 91 c2 01 	lds	r23, 0x01C2
    1bec:	90 e0       	ldi	r25, 0x00	; 0
    1bee:	f8 d3       	rcall	.+2032   	; 0x23e0 <fputc>
			putchar(Bdata[5]);
    1bf0:	80 91 a6 01 	lds	r24, 0x01A6
    1bf4:	60 91 c1 01 	lds	r22, 0x01C1
    1bf8:	70 91 c2 01 	lds	r23, 0x01C2
    1bfc:	90 e0       	ldi	r25, 0x00	; 0
    1bfe:	f0 d3       	rcall	.+2016   	; 0x23e0 <fputc>
			putchar(Bdata[6]);
    1c00:	80 91 a7 01 	lds	r24, 0x01A7
    1c04:	60 91 c1 01 	lds	r22, 0x01C1
    1c08:	70 91 c2 01 	lds	r23, 0x01C2
    1c0c:	90 e0       	ldi	r25, 0x00	; 0
    1c0e:	e8 d3       	rcall	.+2000   	; 0x23e0 <fputc>
			putchar(Bdata[7]);
    1c10:	80 91 a8 01 	lds	r24, 0x01A8
    1c14:	60 91 c1 01 	lds	r22, 0x01C1
    1c18:	70 91 c2 01 	lds	r23, 0x01C2
    1c1c:	90 e0       	ldi	r25, 0x00	; 0
    1c1e:	e0 d3       	rcall	.+1984   	; 0x23e0 <fputc>
			putchar(Bdata[8]);
    1c20:	80 91 a9 01 	lds	r24, 0x01A9
    1c24:	60 91 c1 01 	lds	r22, 0x01C1
    1c28:	70 91 c2 01 	lds	r23, 0x01C2
    1c2c:	90 e0       	ldi	r25, 0x00	; 0
    1c2e:	d8 d3       	rcall	.+1968   	; 0x23e0 <fputc>
			putchar(',');
    1c30:	60 91 c1 01 	lds	r22, 0x01C1
    1c34:	70 91 c2 01 	lds	r23, 0x01C2
    1c38:	8c e2       	ldi	r24, 0x2C	; 44
    1c3a:	90 e0       	ldi	r25, 0x00	; 0
    1c3c:	d1 d3       	rcall	.+1954   	; 0x23e0 <fputc>
        txBuffer[4+6*j+3] = adxl345_spi_read(0xB6);
        txBuffer[5+6*j+3] = adxl345_spi_read(0xB7);
		uc_sw_MUX_ACC_EN_HI;//Disconnect interface
		if(DEBUGGING_ON)
		{
				for (i=0;i<3;i++)
    1c3e:	80 91 9b 01 	lds	r24, 0x019B
    1c42:	8f 5f       	subi	r24, 0xFF	; 255
    1c44:	80 93 9b 01 	sts	0x019B, r24
    1c48:	20 91 9b 01 	lds	r18, 0x019B
    1c4c:	90 91 9c 01 	lds	r25, 0x019C
    1c50:	23 30       	cpi	r18, 0x03	; 3
    1c52:	08 f4       	brcc	.+2      	; 0x1c56 <main+0x4f6>
    1c54:	3b cf       	rjmp	.-394    	; 0x1acc <main+0x36c>
		uc_sw_MUX_ACC_EN_HI;//Disconnect interface
	
		
	//read accelerometers s
	printf("%u.%.2u,",overflowCount,timer0_ticks);
		for(j=0;j<16;j++)
    1c56:	9f 5f       	subi	r25, 0xFF	; 255
    1c58:	90 93 9c 01 	sts	0x019C, r25
    1c5c:	e0 91 9c 01 	lds	r30, 0x019C
    1c60:	e0 31       	cpi	r30, 0x10	; 16
    1c62:	08 f4       	brcc	.+2      	; 0x1c66 <main+0x506>
    1c64:	bf ce       	rjmp	.-642    	; 0x19e4 <main+0x284>
		}
		}
				if(DEBUGGING_ON)
		{
		}
		rf_send(DEST_ADDR, txBuffer, 99);
    1c66:	20 e8       	ldi	r18, 0x80	; 128
    1c68:	34 e8       	ldi	r19, 0x84	; 132
    1c6a:	3b 83       	std	Y+3, r19	; 0x03
    1c6c:	2a 83       	std	Y+2, r18	; 0x02
}


void rf_send(uint16_t address, const uint8_t* msg, uint8_t length)
{
    uint16_t frameControlField = RF_FCF_NOACK;
    1c6e:	81 e6       	ldi	r24, 0x61	; 97
    1c70:	98 e8       	ldi	r25, 0x88	; 136
    1c72:	9d 83       	std	Y+5, r25	; 0x05
    1c74:	8c 83       	std	Y+4, r24	; 0x04
    uint8_t packetLength = length + RF_PACKET_OVERHEAD_SIZE;
    1c76:	8e e6       	ldi	r24, 0x6E	; 110
    1c78:	89 83       	std	Y+1, r24	; 0x01
    if (length > RF_MAX_PAYLOAD_SIZE) {
        return;
    }

    /* Turn radio to standby mode, and save original mode */
    oldMode = rf_mode;
    1c7a:	10 91 11 01 	lds	r17, 0x0111
    rf_setMode(RF_MODE_STANDBY);
    1c7e:	82 e0       	ldi	r24, 0x02	; 2
    1c80:	fe dc       	rcall	.-1540   	; 0x167e <rf_setMode.1476>

    /* Wait until the transceiver is idle */
    while (isFifop() || isSfd()) {
    1c82:	0c 99       	sbic	0x01, 4	; 1
    1c84:	fe cf       	rjmp	.-4      	; 0x1c82 <main+0x522>
    1c86:	84 99       	sbic	0x10, 4	; 16
    1c88:	fc cf       	rjmp	.-8      	; 0x1c82 <main+0x522>
        ;
    }

    /* Disable interrupts while accessing SPI */
    disableInterrupts();
    1c8a:	f8 94       	cli

    /* Flush the TX FIFO buffer */
    sendByte(SFLUSHTX);
    1c8c:	89 e0       	ldi	r24, 0x09	; 9
    1c8e:	f0 dc       	rcall	.-1568   	; 0x1670 <sendByte.9911>
        statusByte = getByte();
    } while (!(statusByte & BIT(RSSI_VALID)));
#endif

    /* Write packet to the TX FIFO (footer is appended automatically) */
    writeFifo(&packetLength, 1);                    /* Packet Length */
    1c90:	ce 01       	movw	r24, r28
    1c92:	01 96       	adiw	r24, 0x01	; 1
    1c94:	61 e0       	ldi	r22, 0x01	; 1
    1c96:	4f dd       	rcall	.-1378   	; 0x1736 <writeFifo.9919>
    writeFifo((uint8_t*)&frameControlField, 2);     /* Frame control field */
    1c98:	c3 01       	movw	r24, r6
    1c9a:	62 e0       	ldi	r22, 0x02	; 2
    1c9c:	4c dd       	rcall	.-1384   	; 0x1736 <writeFifo.9919>
    writeFifo(&txSeqNumber, 1);                     /* Sequence Number */
    1c9e:	89 e1       	ldi	r24, 0x19	; 25
    1ca0:	91 e0       	ldi	r25, 0x01	; 1
    1ca2:	61 e0       	ldi	r22, 0x01	; 1
    1ca4:	48 dd       	rcall	.-1392   	; 0x1736 <writeFifo.9919>
    writeFifo((uint8_t*)&panId, 2);                 /* PAN ID */
    1ca6:	82 e1       	ldi	r24, 0x12	; 18
    1ca8:	91 e0       	ldi	r25, 0x01	; 1
    1caa:	62 e0       	ldi	r22, 0x02	; 2
    1cac:	44 dd       	rcall	.-1400   	; 0x1736 <writeFifo.9919>
    writeFifo((uint8_t*)&address, 2);               /* Destination address */
    1cae:	c2 01       	movw	r24, r4
    1cb0:	62 e0       	ldi	r22, 0x02	; 2
    1cb2:	41 dd       	rcall	.-1406   	; 0x1736 <writeFifo.9919>
    writeFifo((uint8_t*)&shortAddress, 2);          /* Source address */
    1cb4:	84 e1       	ldi	r24, 0x14	; 20
    1cb6:	91 e0       	ldi	r25, 0x01	; 1
    1cb8:	62 e0       	ldi	r22, 0x02	; 2
    1cba:	3d dd       	rcall	.-1414   	; 0x1736 <writeFifo.9919>
    writeFifo(msg, length);                         /* Payload */
    1cbc:	88 e2       	ldi	r24, 0x28	; 40
    1cbe:	91 e0       	ldi	r25, 0x01	; 1
    1cc0:	63 e6       	ldi	r22, 0x63	; 99
    1cc2:	39 dd       	rcall	.-1422   	; 0x1736 <writeFifo.9919>

    /* Send packet */
#ifdef RF_CARRIER_DETECT
    sendByte(STXONCCA);
#else
    sendByte(STXON);
    1cc4:	84 e0       	ldi	r24, 0x04	; 4
    1cc6:	d4 dc       	rcall	.-1624   	; 0x1670 <sendByte.9911>
#endif

    /* Wait until transmission starts (SFD field has been sent) */
    while (!isSfd()) {
    1cc8:	84 9b       	sbis	0x10, 4	; 16
    1cca:	fe cf       	rjmp	.-4      	; 0x1cc8 <main+0x568>
        ;
    }

    /* Increment the sequence number*/
    txSeqNumber++;
    1ccc:	80 91 19 01 	lds	r24, 0x0119
    1cd0:	8f 5f       	subi	r24, 0xFF	; 255
    1cd2:	80 93 19 01 	sts	0x0119, r24
        sendByte(SRFOFF);
    }
#endif

    /* Return to original mode */
    rf_setMode(oldMode);
    1cd6:	81 2f       	mov	r24, r17
    1cd8:	d2 dc       	rcall	.-1628   	; 0x167e <rf_setMode.1476>

    /* Turn interrupts back on */
    enableInterrupts();
    1cda:	78 94       	sei
		//delay_ms(7);
		//rf_send(DEST_ADDR, txBuffer, 99);
		
	
			
		for(j=0;j<16;j++)
    1cdc:	10 92 9c 01 	sts	0x019C, r1
    milliseconds can be achieved.
 */
void
_delay_loop_2(uint16_t __count)
{
	__asm__ volatile (
    1ce0:	04 ef       	ldi	r16, 0xF4	; 244
    1ce2:	11 e0       	ldi	r17, 0x01	; 1
    1ce4:	7b c1       	rjmp	.+758    	; 0x1fdc <main+0x87c>
		{
			if(j&0x01)uc_sw_MUX_A0_HI;
    1ce6:	80 ff       	sbrs	r24, 0
    1ce8:	02 c0       	rjmp	.+4      	; 0x1cee <main+0x58e>
    1cea:	af 9a       	sbi	0x15, 7	; 21
    1cec:	01 c0       	rjmp	.+2      	; 0x1cf0 <main+0x590>
			else uc_sw_MUX_A0_LO;
    1cee:	af 98       	cbi	0x15, 7	; 21
			if(j&0x02)uc_sw_MUX_A1_HI;
    1cf0:	81 ff       	sbrs	r24, 1
    1cf2:	02 c0       	rjmp	.+4      	; 0x1cf8 <main+0x598>
    1cf4:	ae 9a       	sbi	0x15, 6	; 21
    1cf6:	01 c0       	rjmp	.+2      	; 0x1cfa <main+0x59a>
			else uc_sw_MUX_A1_LO;
    1cf8:	ae 98       	cbi	0x15, 6	; 21
			if(j&0x04)uc_sw_MUX_A2_HI;
    1cfa:	82 ff       	sbrs	r24, 2
    1cfc:	02 c0       	rjmp	.+4      	; 0x1d02 <main+0x5a2>
    1cfe:	ad 9a       	sbi	0x15, 5	; 21
    1d00:	01 c0       	rjmp	.+2      	; 0x1d04 <main+0x5a4>
			else uc_sw_MUX_A2_LO;
    1d02:	ad 98       	cbi	0x15, 5	; 21
			if(j&0x08)uc_sw_MUX_A3_HI;
    1d04:	83 ff       	sbrs	r24, 3
    1d06:	02 c0       	rjmp	.+4      	; 0x1d0c <main+0x5ac>
    1d08:	ac 9a       	sbi	0x15, 4	; 21
    1d0a:	01 c0       	rjmp	.+2      	; 0x1d0e <main+0x5ae>
			else uc_sw_MUX_A3_LO;
    1d0c:	ac 98       	cbi	0x15, 4	; 21
    can be achieved.
*/
void
_delay_loop_1(uint8_t __count)
{
	__asm__ volatile (
    1d0e:	8a e1       	ldi	r24, 0x1A	; 26
    1d10:	8a 95       	dec	r24
    1d12:	f1 f7       	brne	.-4      	; 0x1d10 <main+0x5b0>
			delay_us(10);
			uc_sw_MUX_BEND_EN_LO;//Interface Enabled
    1d14:	aa 98       	cbi	0x15, 2	; 21
    1d16:	80 ef       	ldi	r24, 0xF0	; 240
    1d18:	8a 95       	dec	r24
    1d1a:	f1 f7       	brne	.-4      	; 0x1d18 <main+0x5b8>
    milliseconds can be achieved.
 */
void
_delay_loop_2(uint16_t __count)
{
	__asm__ volatile (
    1d1c:	c8 01       	movw	r24, r16
    1d1e:	01 97       	sbiw	r24, 0x01	; 1
    1d20:	f1 f7       	brne	.-4      	; 0x1d1e <main+0x5be>
			delay_us(90);
			delay_us(250);
			delay_us(250);
			
			adc_init(2, 10, ADC_REF_VCC);
    1d22:	c8 01       	movw	r24, r16
    1d24:	01 97       	sbiw	r24, 0x01	; 1
    1d26:	f1 f7       	brne	.-4      	; 0x1d24 <main+0x5c4>
    1d28:	82 e0       	ldi	r24, 0x02	; 2
    1d2a:	6a e0       	ldi	r22, 0x0A	; 10
    1d2c:	41 e0       	ldi	r20, 0x01	; 1
    1d2e:	0c dc       	rcall	.-2024   	; 0x1548 <adc_init.1365>
			
			adcValue=adc_singleConversion();
    1d30:	26 dc       	rcall	.-1972   	; 0x157e <adc_singleConversion.1374>
    1d32:	90 93 bb 01 	sts	0x01BB, r25
    1d36:	80 93 ba 01 	sts	0x01BA, r24
			//adcValue=adc_singleConversion();
			txBuffer[0+6*j+3] = HIGH_BYTE(adcValue);
    1d3a:	20 91 9c 01 	lds	r18, 0x019C
    1d3e:	30 e0       	ldi	r19, 0x00	; 0
    1d40:	f9 01       	movw	r30, r18
    1d42:	ee 0f       	add	r30, r30
    1d44:	ff 1f       	adc	r31, r31
    1d46:	e2 0f       	add	r30, r18
    1d48:	f3 1f       	adc	r31, r19
    1d4a:	ee 0f       	add	r30, r30
    1d4c:	ff 1f       	adc	r31, r31
    1d4e:	e8 5d       	subi	r30, 0xD8	; 216
    1d50:	fe 4f       	sbci	r31, 0xFE	; 254
    1d52:	29 2f       	mov	r18, r25
    1d54:	33 27       	eor	r19, r19
    1d56:	23 83       	std	Z+3, r18	; 0x03
			txBuffer[1+6*j+3]= LOW_BYTE(adcValue);
    1d58:	84 83       	std	Z+4, r24	; 0x04
			
			
			adc_init(1, 10,ADC_REF_VCC);
    1d5a:	81 e0       	ldi	r24, 0x01	; 1
    1d5c:	6a e0       	ldi	r22, 0x0A	; 10
    1d5e:	41 e0       	ldi	r20, 0x01	; 1
    1d60:	f3 db       	rcall	.-2074   	; 0x1548 <adc_init.1365>
			//delay_us(10);
			adcValue=adc_singleConversion();
    1d62:	0d dc       	rcall	.-2022   	; 0x157e <adc_singleConversion.1374>
    1d64:	90 93 bb 01 	sts	0x01BB, r25
    1d68:	80 93 ba 01 	sts	0x01BA, r24
			//adcValue=adc_singleConversion();
			txBuffer[2+6*j+3] = HIGH_BYTE(adcValue);
    1d6c:	20 91 9c 01 	lds	r18, 0x019C
    1d70:	30 e0       	ldi	r19, 0x00	; 0
    1d72:	f9 01       	movw	r30, r18
    1d74:	ee 0f       	add	r30, r30
    1d76:	ff 1f       	adc	r31, r31
    1d78:	e2 0f       	add	r30, r18
    1d7a:	f3 1f       	adc	r31, r19
    1d7c:	ee 0f       	add	r30, r30
    1d7e:	ff 1f       	adc	r31, r31
    1d80:	e6 5d       	subi	r30, 0xD6	; 214
    1d82:	fe 4f       	sbci	r31, 0xFE	; 254
    1d84:	49 2f       	mov	r20, r25
    1d86:	55 27       	eor	r21, r21
    1d88:	43 83       	std	Z+3, r20	; 0x03
			txBuffer[3+6*j+3] = LOW_BYTE(adcValue);
    1d8a:	2f 5f       	subi	r18, 0xFF	; 255
    1d8c:	3f 4f       	sbci	r19, 0xFF	; 255
    1d8e:	f9 01       	movw	r30, r18
    1d90:	ee 0f       	add	r30, r30
    1d92:	ff 1f       	adc	r31, r31
    1d94:	e2 0f       	add	r30, r18
    1d96:	f3 1f       	adc	r31, r19
    1d98:	ee 0f       	add	r30, r30
    1d9a:	ff 1f       	adc	r31, r31
    1d9c:	e8 5d       	subi	r30, 0xD8	; 216
    1d9e:	fe 4f       	sbci	r31, 0xFE	; 254
    1da0:	80 83       	st	Z, r24
			
			adc_init(3, 10,ADC_REF_VCC);
    1da2:	83 e0       	ldi	r24, 0x03	; 3
    1da4:	6a e0       	ldi	r22, 0x0A	; 10
    1da6:	41 e0       	ldi	r20, 0x01	; 1
    1da8:	cf db       	rcall	.-2146   	; 0x1548 <adc_init.1365>
			//adc_init(3, 10,ADC_REF_INTERNAL);
			//delay_us(100);
			adcValue=adc_singleConversion();
    1daa:	e9 db       	rcall	.-2094   	; 0x157e <adc_singleConversion.1374>
    1dac:	90 93 bb 01 	sts	0x01BB, r25
    1db0:	80 93 ba 01 	sts	0x01BA, r24

			//adcValue=adc_singleConversion();
			txBuffer[4+6*j+3] = HIGH_BYTE(adcValue);
    1db4:	20 91 9c 01 	lds	r18, 0x019C
    1db8:	30 e0       	ldi	r19, 0x00	; 0
    1dba:	f9 01       	movw	r30, r18
    1dbc:	ee 0f       	add	r30, r30
    1dbe:	ff 1f       	adc	r31, r31
    1dc0:	e2 0f       	add	r30, r18
    1dc2:	f3 1f       	adc	r31, r19
    1dc4:	ee 0f       	add	r30, r30
    1dc6:	ff 1f       	adc	r31, r31
    1dc8:	e8 5d       	subi	r30, 0xD8	; 216
    1dca:	fe 4f       	sbci	r31, 0xFE	; 254
    1dcc:	29 2f       	mov	r18, r25
    1dce:	33 27       	eor	r19, r19
    1dd0:	27 83       	std	Z+7, r18	; 0x07
			txBuffer[5+6*j+3]  = LOW_BYTE(adcValue);
    1dd2:	80 87       	std	Z+8, r24	; 0x08

			
		uc_sw_MUX_BEND_EN_HI;//Disconnect interface
    1dd4:	aa 9a       	sbi	0x15, 2	; 21
		if(DEBUGGING_ON)
		{
			for (i=0;i<1;i++)
    1dd6:	10 92 9b 01 	sts	0x019B, r1
    1dda:	f6 c0       	rjmp	.+492    	; 0x1fc8 <main+0x868>
		{
		

		tempresult=(txBuffer[2*i+1+6*j+3]+256*((txBuffer[2*i+6*j+3])&0x03))*(3.3/1024);
    1ddc:	9e 9d       	mul	r25, r14
    1dde:	f0 01       	movw	r30, r0
    1de0:	11 24       	eor	r1, r1
    1de2:	ee 0f       	add	r30, r30
    1de4:	ff 1f       	adc	r31, r31
    1de6:	df 01       	movw	r26, r30
    1de8:	a8 5d       	subi	r26, 0xD8	; 216
    1dea:	be 4f       	sbci	r27, 0xFE	; 254
    1dec:	13 96       	adiw	r26, 0x03	; 3
    1dee:	6c 91       	ld	r22, X
    1df0:	70 e0       	ldi	r23, 0x00	; 0
    1df2:	63 70       	andi	r22, 0x03	; 3
    1df4:	70 70       	andi	r23, 0x00	; 0
    1df6:	76 2f       	mov	r23, r22
    1df8:	66 27       	eor	r22, r22
    1dfa:	e4 5d       	subi	r30, 0xD4	; 212
    1dfc:	fe 4f       	sbci	r31, 0xFE	; 254
    1dfe:	20 81       	ld	r18, Z
    1e00:	62 0f       	add	r22, r18
    1e02:	71 1d       	adc	r23, r1
    1e04:	88 27       	eor	r24, r24
    1e06:	77 fd       	sbrc	r23, 7
    1e08:	80 95       	com	r24
    1e0a:	98 2f       	mov	r25, r24
    1e0c:	f6 d9       	rcall	.-3092   	; 0x11fa <__floatsisf>
    1e0e:	23 e3       	ldi	r18, 0x33	; 51
    1e10:	33 e3       	ldi	r19, 0x33	; 51
    1e12:	43 e5       	ldi	r20, 0x53	; 83
    1e14:	5b e3       	ldi	r21, 0x3B	; 59
    1e16:	2c da       	rcall	.-2984   	; 0x1270 <__mulsf3>
    1e18:	60 93 9d 01 	sts	0x019D, r22
    1e1c:	70 93 9e 01 	sts	0x019E, r23
    1e20:	80 93 9f 01 	sts	0x019F, r24
    1e24:	90 93 a0 01 	sts	0x01A0, r25
		snprintf(&Bdata[0],9,"%f",tempresult);
    1e28:	ad b7       	in	r26, 0x3d	; 61
    1e2a:	be b7       	in	r27, 0x3e	; 62
    1e2c:	1a 97       	sbiw	r26, 0x0a	; 10
    1e2e:	0f b6       	in	r0, 0x3f	; 63
    1e30:	f8 94       	cli
    1e32:	be bf       	out	0x3e, r27	; 62
    1e34:	0f be       	out	0x3f, r0	; 63
    1e36:	ad bf       	out	0x3d, r26	; 61
    1e38:	ed b7       	in	r30, 0x3d	; 61
    1e3a:	fe b7       	in	r31, 0x3e	; 62
    1e3c:	31 96       	adiw	r30, 0x01	; 1
    1e3e:	12 96       	adiw	r26, 0x02	; 2
    1e40:	dc 92       	st	X, r13
    1e42:	ce 92       	st	-X, r12
    1e44:	11 97       	sbiw	r26, 0x01	; 1
    1e46:	b3 82       	std	Z+3, r11	; 0x03
    1e48:	a2 82       	std	Z+2, r10	; 0x02
    1e4a:	95 82       	std	Z+5, r9	; 0x05
    1e4c:	84 82       	std	Z+4, r8	; 0x04
    1e4e:	66 83       	std	Z+6, r22	; 0x06
    1e50:	77 83       	std	Z+7, r23	; 0x07
    1e52:	80 87       	std	Z+8, r24	; 0x08
    1e54:	91 87       	std	Z+9, r25	; 0x09
    1e56:	13 d3       	rcall	.+1574   	; 0x247e <snprintf>
			
			
			
			
			if(i==0 && j < 5)
    1e58:	ed b7       	in	r30, 0x3d	; 61
    1e5a:	fe b7       	in	r31, 0x3e	; 62
    1e5c:	3a 96       	adiw	r30, 0x0a	; 10
    1e5e:	0f b6       	in	r0, 0x3f	; 63
    1e60:	f8 94       	cli
    1e62:	fe bf       	out	0x3e, r31	; 62
    1e64:	0f be       	out	0x3f, r0	; 63
    1e66:	ed bf       	out	0x3d, r30	; 61
    1e68:	80 91 9b 01 	lds	r24, 0x019B
    1e6c:	88 23       	and	r24, r24
    1e6e:	09 f0       	breq	.+2      	; 0x1e72 <main+0x712>
    1e70:	a6 c0       	rjmp	.+332    	; 0x1fbe <main+0x85e>
    1e72:	80 91 9c 01 	lds	r24, 0x019C
    1e76:	85 30       	cpi	r24, 0x05	; 5
    1e78:	08 f0       	brcs	.+2      	; 0x1e7c <main+0x71c>
    1e7a:	4f c0       	rjmp	.+158    	; 0x1f1a <main+0x7ba>
			{
				
				putchar(Bdata[0]);
    1e7c:	80 91 a1 01 	lds	r24, 0x01A1
    1e80:	60 91 c1 01 	lds	r22, 0x01C1
    1e84:	70 91 c2 01 	lds	r23, 0x01C2
    1e88:	90 e0       	ldi	r25, 0x00	; 0
    1e8a:	aa d2       	rcall	.+1364   	; 0x23e0 <fputc>
				putchar(Bdata[1]);
    1e8c:	80 91 a2 01 	lds	r24, 0x01A2
    1e90:	60 91 c1 01 	lds	r22, 0x01C1
    1e94:	70 91 c2 01 	lds	r23, 0x01C2
    1e98:	90 e0       	ldi	r25, 0x00	; 0
    1e9a:	a2 d2       	rcall	.+1348   	; 0x23e0 <fputc>
				putchar(Bdata[2]);
    1e9c:	80 91 a3 01 	lds	r24, 0x01A3
    1ea0:	60 91 c1 01 	lds	r22, 0x01C1
    1ea4:	70 91 c2 01 	lds	r23, 0x01C2
    1ea8:	90 e0       	ldi	r25, 0x00	; 0
    1eaa:	9a d2       	rcall	.+1332   	; 0x23e0 <fputc>
				putchar(Bdata[3]);
    1eac:	80 91 a4 01 	lds	r24, 0x01A4
    1eb0:	60 91 c1 01 	lds	r22, 0x01C1
    1eb4:	70 91 c2 01 	lds	r23, 0x01C2
    1eb8:	90 e0       	ldi	r25, 0x00	; 0
    1eba:	92 d2       	rcall	.+1316   	; 0x23e0 <fputc>
				putchar(Bdata[4]);
    1ebc:	80 91 a5 01 	lds	r24, 0x01A5
    1ec0:	60 91 c1 01 	lds	r22, 0x01C1
    1ec4:	70 91 c2 01 	lds	r23, 0x01C2
    1ec8:	90 e0       	ldi	r25, 0x00	; 0
    1eca:	8a d2       	rcall	.+1300   	; 0x23e0 <fputc>
				putchar(Bdata[5]);
    1ecc:	80 91 a6 01 	lds	r24, 0x01A6
    1ed0:	60 91 c1 01 	lds	r22, 0x01C1
    1ed4:	70 91 c2 01 	lds	r23, 0x01C2
    1ed8:	90 e0       	ldi	r25, 0x00	; 0
    1eda:	82 d2       	rcall	.+1284   	; 0x23e0 <fputc>
				putchar(Bdata[6]);
    1edc:	80 91 a7 01 	lds	r24, 0x01A7
    1ee0:	60 91 c1 01 	lds	r22, 0x01C1
    1ee4:	70 91 c2 01 	lds	r23, 0x01C2
    1ee8:	90 e0       	ldi	r25, 0x00	; 0
    1eea:	7a d2       	rcall	.+1268   	; 0x23e0 <fputc>
				putchar(Bdata[7]);
    1eec:	80 91 a8 01 	lds	r24, 0x01A8
    1ef0:	60 91 c1 01 	lds	r22, 0x01C1
    1ef4:	70 91 c2 01 	lds	r23, 0x01C2
    1ef8:	90 e0       	ldi	r25, 0x00	; 0
    1efa:	72 d2       	rcall	.+1252   	; 0x23e0 <fputc>
				putchar(Bdata[8]);
    1efc:	80 91 a9 01 	lds	r24, 0x01A9
    1f00:	60 91 c1 01 	lds	r22, 0x01C1
    1f04:	70 91 c2 01 	lds	r23, 0x01C2
    1f08:	90 e0       	ldi	r25, 0x00	; 0
    1f0a:	6a d2       	rcall	.+1236   	; 0x23e0 <fputc>
				putchar(',');
    1f0c:	60 91 c1 01 	lds	r22, 0x01C1
    1f10:	70 91 c2 01 	lds	r23, 0x01C2
    1f14:	8c e2       	ldi	r24, 0x2C	; 44
    1f16:	90 e0       	ldi	r25, 0x00	; 0
    1f18:	51 c0       	rjmp	.+162    	; 0x1fbc <main+0x85c>
				
			
			} else if(i==0 && j == 5){
    1f1a:	85 30       	cpi	r24, 0x05	; 5
    1f1c:	09 f0       	breq	.+2      	; 0x1f20 <main+0x7c0>
    1f1e:	4f c0       	rjmp	.+158    	; 0x1fbe <main+0x85e>
			
				putchar(Bdata[0]);
    1f20:	80 91 a1 01 	lds	r24, 0x01A1
    1f24:	60 91 c1 01 	lds	r22, 0x01C1
    1f28:	70 91 c2 01 	lds	r23, 0x01C2
    1f2c:	90 e0       	ldi	r25, 0x00	; 0
    1f2e:	58 d2       	rcall	.+1200   	; 0x23e0 <fputc>
				putchar(Bdata[1]);
    1f30:	80 91 a2 01 	lds	r24, 0x01A2
    1f34:	60 91 c1 01 	lds	r22, 0x01C1
    1f38:	70 91 c2 01 	lds	r23, 0x01C2
    1f3c:	90 e0       	ldi	r25, 0x00	; 0
    1f3e:	50 d2       	rcall	.+1184   	; 0x23e0 <fputc>
				putchar(Bdata[2]);
    1f40:	80 91 a3 01 	lds	r24, 0x01A3
    1f44:	60 91 c1 01 	lds	r22, 0x01C1
    1f48:	70 91 c2 01 	lds	r23, 0x01C2
    1f4c:	90 e0       	ldi	r25, 0x00	; 0
    1f4e:	48 d2       	rcall	.+1168   	; 0x23e0 <fputc>
				putchar(Bdata[3]);
    1f50:	80 91 a4 01 	lds	r24, 0x01A4
    1f54:	60 91 c1 01 	lds	r22, 0x01C1
    1f58:	70 91 c2 01 	lds	r23, 0x01C2
    1f5c:	90 e0       	ldi	r25, 0x00	; 0
    1f5e:	40 d2       	rcall	.+1152   	; 0x23e0 <fputc>
				putchar(Bdata[4]);
    1f60:	80 91 a5 01 	lds	r24, 0x01A5
    1f64:	60 91 c1 01 	lds	r22, 0x01C1
    1f68:	70 91 c2 01 	lds	r23, 0x01C2
    1f6c:	90 e0       	ldi	r25, 0x00	; 0
    1f6e:	38 d2       	rcall	.+1136   	; 0x23e0 <fputc>
				putchar(Bdata[5]);
    1f70:	80 91 a6 01 	lds	r24, 0x01A6
    1f74:	60 91 c1 01 	lds	r22, 0x01C1
    1f78:	70 91 c2 01 	lds	r23, 0x01C2
    1f7c:	90 e0       	ldi	r25, 0x00	; 0
    1f7e:	30 d2       	rcall	.+1120   	; 0x23e0 <fputc>
				putchar(Bdata[6]);
    1f80:	80 91 a7 01 	lds	r24, 0x01A7
    1f84:	60 91 c1 01 	lds	r22, 0x01C1
    1f88:	70 91 c2 01 	lds	r23, 0x01C2
    1f8c:	90 e0       	ldi	r25, 0x00	; 0
    1f8e:	28 d2       	rcall	.+1104   	; 0x23e0 <fputc>
				putchar(Bdata[7]);
    1f90:	80 91 a8 01 	lds	r24, 0x01A8
    1f94:	60 91 c1 01 	lds	r22, 0x01C1
    1f98:	70 91 c2 01 	lds	r23, 0x01C2
    1f9c:	90 e0       	ldi	r25, 0x00	; 0
    1f9e:	20 d2       	rcall	.+1088   	; 0x23e0 <fputc>
				putchar(Bdata[8]);
    1fa0:	80 91 a9 01 	lds	r24, 0x01A9
    1fa4:	60 91 c1 01 	lds	r22, 0x01C1
    1fa8:	70 91 c2 01 	lds	r23, 0x01C2
    1fac:	90 e0       	ldi	r25, 0x00	; 0
    1fae:	18 d2       	rcall	.+1072   	; 0x23e0 <fputc>
				putchar('*');
    1fb0:	60 91 c1 01 	lds	r22, 0x01C1
    1fb4:	70 91 c2 01 	lds	r23, 0x01C2
    1fb8:	8a e2       	ldi	r24, 0x2A	; 42
    1fba:	90 e0       	ldi	r25, 0x00	; 0
    1fbc:	11 d2       	rcall	.+1058   	; 0x23e0 <fputc>

			
		uc_sw_MUX_BEND_EN_HI;//Disconnect interface
		if(DEBUGGING_ON)
		{
			for (i=0;i<1;i++)
    1fbe:	80 91 9b 01 	lds	r24, 0x019B
    1fc2:	8f 5f       	subi	r24, 0xFF	; 255
    1fc4:	80 93 9b 01 	sts	0x019B, r24
    1fc8:	80 91 9b 01 	lds	r24, 0x019B
    1fcc:	90 91 9c 01 	lds	r25, 0x019C
    1fd0:	88 23       	and	r24, r24
    1fd2:	09 f4       	brne	.+2      	; 0x1fd6 <main+0x876>
    1fd4:	03 cf       	rjmp	.-506    	; 0x1ddc <main+0x67c>
		//delay_ms(7);
		//rf_send(DEST_ADDR, txBuffer, 99);
		
	
			
		for(j=0;j<16;j++)
    1fd6:	9f 5f       	subi	r25, 0xFF	; 255
    1fd8:	90 93 9c 01 	sts	0x019C, r25
    1fdc:	80 91 9c 01 	lds	r24, 0x019C
    1fe0:	80 31       	cpi	r24, 0x10	; 16
    1fe2:	08 f0       	brcs	.+2      	; 0x1fe6 <main+0x886>
    1fe4:	da cc       	rjmp	.-1612   	; 0x199a <main+0x23a>
    1fe6:	7f ce       	rjmp	.-770    	; 0x1ce6 <main+0x586>

00001fe8 <getFifo.9922>:
 *
 * @param data a pointer to where to save the data that is read.
 * @param size how many bytes to read.
 **/
static void getFifo(volatile uint8_t* data, uint8_t size)
{
    1fe8:	9c 01       	movw	r18, r24

/** Enable chip select connected to radio. **/
FORCE_INLINE
static inline void spi_enableCsn(void)
{
    SPI_PORT &= ~BIT(SPI_CSN);
    1fea:	c0 98       	cbi	0x18, 0	; 24


FORCE_INLINE
static inline uint8_t spi_readWriteByte(uint8_t byte)
{
    SPDR = byte;
    1fec:	8f e7       	ldi	r24, 0x7F	; 127
    1fee:	8f b9       	out	0x0f, r24	; 15
    while (!(SPSR & BIT(SPIF))) {
    1ff0:	77 9b       	sbis	0x0e, 7	; 14
    1ff2:	fe cf       	rjmp	.-4      	; 0x1ff0 <getFifo.9922+0x8>
        ;
    }
    return SPDR;
    1ff4:	8f b1       	in	r24, 0x0f	; 15
    1ff6:	f9 01       	movw	r30, r18
    1ff8:	90 e0       	ldi	r25, 0x00	; 0
    1ffa:	06 c0       	rjmp	.+12     	; 0x2008 <getFifo.9922+0x20>


FORCE_INLINE
static inline uint8_t spi_readWriteByte(uint8_t byte)
{
    SPDR = byte;
    1ffc:	1f b8       	out	0x0f, r1	; 15
    while (!(SPSR & BIT(SPIF))) {
    1ffe:	77 9b       	sbis	0x0e, 7	; 14
    2000:	fe cf       	rjmp	.-4      	; 0x1ffe <getFifo.9922+0x16>
        ;
    }
    return SPDR;
    2002:	8f b1       	in	r24, 0x0f	; 15
    spi_enableCsn();
    spi_readWriteByte(RXFIFO | REG_READ);
    for (uint8_t i = 0; i < size; i++) {
        data[i] = spi_readWriteByte(0);
    2004:	81 93       	st	Z+, r24
 **/
static void getFifo(volatile uint8_t* data, uint8_t size)
{
    spi_enableCsn();
    spi_readWriteByte(RXFIFO | REG_READ);
    for (uint8_t i = 0; i < size; i++) {
    2006:	9f 5f       	subi	r25, 0xFF	; 255
    2008:	96 17       	cp	r25, r22
    200a:	c0 f3       	brcs	.-16     	; 0x1ffc <getFifo.9922+0x14>

/** Disable chip select connected to radio. **/
FORCE_INLINE
static inline void spi_disableCsn(void)
{
    SPI_PORT |= BIT(SPI_CSN);
    200c:	c0 9a       	sbi	0x18, 0	; 24
        data[i] = spi_readWriteByte(0);
    }
    spi_disableCsn();
}
    200e:	08 95       	ret

00002010 <discardFifo.9924>:
 * Read and ignore data from the RX FIFO.
 *
 * @param size how many bytes to read and discard.
 **/
static void discardFifo(uint8_t size)
{
    2010:	98 2f       	mov	r25, r24

/** Enable chip select connected to radio. **/
FORCE_INLINE
static inline void spi_enableCsn(void)
{
    SPI_PORT &= ~BIT(SPI_CSN);
    2012:	c0 98       	cbi	0x18, 0	; 24


FORCE_INLINE
static inline uint8_t spi_readWriteByte(uint8_t byte)
{
    SPDR = byte;
    2014:	8f e7       	ldi	r24, 0x7F	; 127
    2016:	8f b9       	out	0x0f, r24	; 15
    while (!(SPSR & BIT(SPIF))) {
    2018:	77 9b       	sbis	0x0e, 7	; 14
    201a:	fe cf       	rjmp	.-4      	; 0x2018 <discardFifo.9924+0x8>
        ;
    }
    return SPDR;
    201c:	8f b1       	in	r24, 0x0f	; 15
    201e:	80 e0       	ldi	r24, 0x00	; 0
    2020:	05 c0       	rjmp	.+10     	; 0x202c <discardFifo.9924+0x1c>


FORCE_INLINE
static inline uint8_t spi_readWriteByte(uint8_t byte)
{
    SPDR = byte;
    2022:	1f b8       	out	0x0f, r1	; 15
    while (!(SPSR & BIT(SPIF))) {
    2024:	77 9b       	sbis	0x0e, 7	; 14
    2026:	fe cf       	rjmp	.-4      	; 0x2024 <discardFifo.9924+0x14>
        ;
    }
    return SPDR;
    2028:	2f b1       	in	r18, 0x0f	; 15
    spi_enableCsn();
    spi_readWriteByte(RXFIFO | REG_READ);
    for (uint8_t i = 0; ((i < size) && isFifo()); i++){
    202a:	8f 5f       	subi	r24, 0xFF	; 255
    202c:	89 17       	cp	r24, r25
    202e:	10 f4       	brcc	.+4      	; 0x2034 <discardFifo.9924+0x24>
    2030:	0d 99       	sbic	0x01, 5	; 1
    2032:	f7 cf       	rjmp	.-18     	; 0x2022 <discardFifo.9924+0x12>

/** Disable chip select connected to radio. **/
FORCE_INLINE
static inline void spi_disableCsn(void)
{
    SPI_PORT |= BIT(SPI_CSN);
    2034:	c0 9a       	sbi	0x18, 0	; 24
        spi_readWriteByte(0);
    }
    spi_disableCsn();
}
    2036:	08 95       	ret

00002038 <__vector_5>:

/**
 * This interrupt is triggered when a full packet is received.
 **/
ISR(RF_INT_VECTOR)
{
    2038:	1f 92       	push	r1
    203a:	0f 92       	push	r0
    203c:	0f b6       	in	r0, 0x3f	; 63
    203e:	0f 92       	push	r0
    2040:	0b b6       	in	r0, 0x3b	; 59
    2042:	0f 92       	push	r0
    2044:	11 24       	eor	r1, r1
    2046:	0f 93       	push	r16
    2048:	1f 93       	push	r17
    204a:	2f 93       	push	r18
    204c:	3f 93       	push	r19
    204e:	4f 93       	push	r20
    2050:	5f 93       	push	r21
    2052:	6f 93       	push	r22
    2054:	7f 93       	push	r23
    2056:	8f 93       	push	r24
    2058:	9f 93       	push	r25
    205a:	af 93       	push	r26
    205c:	bf 93       	push	r27
    205e:	ef 93       	push	r30
    2060:	ff 93       	push	r31
    2062:	df 93       	push	r29
    2064:	cf 93       	push	r28
    2066:	00 d0       	rcall	.+0      	; 0x2068 <__vector_5+0x30>
    2068:	00 d0       	rcall	.+0      	; 0x206a <__vector_5+0x32>
    206a:	0f 92       	push	r0
    206c:	cd b7       	in	r28, 0x3d	; 61
    206e:	de b7       	in	r29, 0x3e	; 62
    uint16_t frameControlField;
    uint8_t length;
    uint8_t footer[2];

    /* Check if FIFO overflow has happened */
    if((isFifop()) && (!(isFifo()))) {
    2070:	0c 9b       	sbis	0x01, 4	; 1
    2072:	05 c0       	rjmp	.+10     	; 0x207e <__vector_5+0x46>
    2074:	0d 99       	sbic	0x01, 5	; 1
    2076:	03 c0       	rjmp	.+6      	; 0x207e <__vector_5+0x46>
        sendByte(SFLUSHRX);
    2078:	88 e0       	ldi	r24, 0x08	; 8
    207a:	fa da       	rcall	.-2572   	; 0x1670 <sendByte.9911>
    207c:	2e c0       	rjmp	.+92     	; 0x20da <__vector_5+0xa2>
        return;
    }

    /* Payload length */
    getFifo(&length, 1);
    207e:	ce 01       	movw	r24, r28
    2080:	01 96       	adiw	r24, 0x01	; 1
    2082:	61 e0       	ldi	r22, 0x01	; 1
    2084:	b1 df       	rcall	.-158    	; 0x1fe8 <getFifo.9922>
    length &= RF_LENGTH_MASK;
    2086:	89 81       	ldd	r24, Y+1	; 0x01
    2088:	8f 77       	andi	r24, 0x7F	; 127
    208a:	89 83       	std	Y+1, r24	; 0x01

    /* Ignore the packet if the length is too short */
    if (length < RF_PACKET_OVERHEAD_SIZE) {
    208c:	8b 30       	cpi	r24, 0x0B	; 11
    208e:	10 f4       	brcc	.+4      	; 0x2094 <__vector_5+0x5c>
        discardFifo(length);
    2090:	bf df       	rcall	.-130    	; 0x2010 <discardFifo.9924>
    2092:	23 c0       	rjmp	.+70     	; 0x20da <__vector_5+0xa2>
        return;
    }

    /* Store payload length */
    buffer->length = length - RF_PACKET_OVERHEAD_SIZE;
    2094:	00 91 1a 01 	lds	r16, 0x011A
    2098:	10 91 1b 01 	lds	r17, 0x011B
    209c:	8b 50       	subi	r24, 0x0B	; 11
    209e:	f8 01       	movw	r30, r16
    20a0:	80 83       	st	Z, r24

    /* Start reading the rest of the data */
    getFifo((uint8_t*) &frameControlField, 2);
    20a2:	ce 01       	movw	r24, r28
    20a4:	02 96       	adiw	r24, 0x02	; 2
    20a6:	62 e0       	ldi	r22, 0x02	; 2
    20a8:	9f df       	rcall	.-194    	; 0x1fe8 <getFifo.9922>
    getFifo(&buffer->seqNumber, 1);
    20aa:	c8 01       	movw	r24, r16
    20ac:	03 96       	adiw	r24, 0x03	; 3
    20ae:	61 e0       	ldi	r22, 0x01	; 1
    20b0:	9b df       	rcall	.-202    	; 0x1fe8 <getFifo.9922>

    /* Ignore destination address */
    discardFifo(4);
    20b2:	84 e0       	ldi	r24, 0x04	; 4
    20b4:	ad df       	rcall	.-166    	; 0x2010 <discardFifo.9924>

    /* Read the source address */
    getFifo((volatile uint8_t*) &buffer->srcAddress, 2);
    20b6:	c8 01       	movw	r24, r16
    20b8:	01 96       	adiw	r24, 0x01	; 1
    20ba:	62 e0       	ldi	r22, 0x02	; 2
    20bc:	95 df       	rcall	.-214    	; 0x1fe8 <getFifo.9922>

    /* Read the packet payload */
    getFifo(buffer->data, length - RF_PACKET_OVERHEAD_SIZE);
    20be:	f8 01       	movw	r30, r16
    20c0:	85 81       	ldd	r24, Z+5	; 0x05
    20c2:	96 81       	ldd	r25, Z+6	; 0x06
    20c4:	69 81       	ldd	r22, Y+1	; 0x01
    20c6:	6b 50       	subi	r22, 0x0B	; 11
    20c8:	8f df       	rcall	.-226    	; 0x1fe8 <getFifo.9922>

    /* Read the footer to get the RSSI value */
    getFifo(footer, 2);
    20ca:	ce 01       	movw	r24, r28
    20cc:	04 96       	adiw	r24, 0x04	; 4
    20ce:	62 e0       	ldi	r22, 0x02	; 2
    20d0:	8b df       	rcall	.-234    	; 0x1fe8 <getFifo.9922>
    
    /* Subtracting 45 as recommended by datasheet */
    buffer->rssi = footer[0] - 45;
    20d2:	8c 81       	ldd	r24, Y+4	; 0x04
    20d4:	8d 52       	subi	r24, 0x2D	; 45
    20d6:	f8 01       	movw	r30, r16
    20d8:	84 83       	std	Z+4, r24	; 0x04

    /* Check CRC, and call upper layer if ok */
    if (footer[1] & RF_CRC_OK_MASK) {
        rf_callback(buffer);
    }
}
    20da:	0f 90       	pop	r0
    20dc:	0f 90       	pop	r0
    20de:	0f 90       	pop	r0
    20e0:	0f 90       	pop	r0
    20e2:	0f 90       	pop	r0
    20e4:	cf 91       	pop	r28
    20e6:	df 91       	pop	r29
    20e8:	ff 91       	pop	r31
    20ea:	ef 91       	pop	r30
    20ec:	bf 91       	pop	r27
    20ee:	af 91       	pop	r26
    20f0:	9f 91       	pop	r25
    20f2:	8f 91       	pop	r24
    20f4:	7f 91       	pop	r23
    20f6:	6f 91       	pop	r22
    20f8:	5f 91       	pop	r21
    20fa:	4f 91       	pop	r20
    20fc:	3f 91       	pop	r19
    20fe:	2f 91       	pop	r18
    2100:	1f 91       	pop	r17
    2102:	0f 91       	pop	r16
    2104:	0f 90       	pop	r0
    2106:	0b be       	out	0x3b, r0	; 59
    2108:	0f 90       	pop	r0
    210a:	0f be       	out	0x3f, r0	; 63
    210c:	0f 90       	pop	r0
    210e:	1f 90       	pop	r1
    2110:	18 95       	reti

00002112 <__prologue_saves__>:
    2112:	2f 92       	push	r2
    2114:	3f 92       	push	r3
    2116:	4f 92       	push	r4
    2118:	5f 92       	push	r5
    211a:	6f 92       	push	r6
    211c:	7f 92       	push	r7
    211e:	8f 92       	push	r8
    2120:	9f 92       	push	r9
    2122:	af 92       	push	r10
    2124:	bf 92       	push	r11
    2126:	cf 92       	push	r12
    2128:	df 92       	push	r13
    212a:	ef 92       	push	r14
    212c:	ff 92       	push	r15
    212e:	0f 93       	push	r16
    2130:	1f 93       	push	r17
    2132:	cf 93       	push	r28
    2134:	df 93       	push	r29
    2136:	cd b7       	in	r28, 0x3d	; 61
    2138:	de b7       	in	r29, 0x3e	; 62
    213a:	ca 1b       	sub	r28, r26
    213c:	db 0b       	sbc	r29, r27
    213e:	0f b6       	in	r0, 0x3f	; 63
    2140:	f8 94       	cli
    2142:	de bf       	out	0x3e, r29	; 62
    2144:	0f be       	out	0x3f, r0	; 63
    2146:	cd bf       	out	0x3d, r28	; 61
    2148:	09 94       	ijmp

0000214a <__ftoa_engine>:
    214a:	28 30       	cpi	r18, 0x08	; 8
    214c:	08 f0       	brcs	.+2      	; 0x2150 <__ftoa_engine+0x6>
    214e:	27 e0       	ldi	r18, 0x07	; 7
    2150:	33 27       	eor	r19, r19
    2152:	da 01       	movw	r26, r20
    2154:	99 0f       	add	r25, r25
    2156:	31 1d       	adc	r19, r1
    2158:	87 fd       	sbrc	r24, 7
    215a:	91 60       	ori	r25, 0x01	; 1
    215c:	00 96       	adiw	r24, 0x00	; 0
    215e:	61 05       	cpc	r22, r1
    2160:	71 05       	cpc	r23, r1
    2162:	39 f4       	brne	.+14     	; 0x2172 <__ftoa_engine+0x28>
    2164:	32 60       	ori	r19, 0x02	; 2
    2166:	2e 5f       	subi	r18, 0xFE	; 254
    2168:	3d 93       	st	X+, r19
    216a:	30 e3       	ldi	r19, 0x30	; 48
    216c:	2a 95       	dec	r18
    216e:	e1 f7       	brne	.-8      	; 0x2168 <__ftoa_engine+0x1e>
    2170:	08 95       	ret
    2172:	9f 3f       	cpi	r25, 0xFF	; 255
    2174:	30 f0       	brcs	.+12     	; 0x2182 <__ftoa_engine+0x38>
    2176:	80 38       	cpi	r24, 0x80	; 128
    2178:	71 05       	cpc	r23, r1
    217a:	61 05       	cpc	r22, r1
    217c:	09 f0       	breq	.+2      	; 0x2180 <__ftoa_engine+0x36>
    217e:	3c 5f       	subi	r19, 0xFC	; 252
    2180:	3c 5f       	subi	r19, 0xFC	; 252
    2182:	3d 93       	st	X+, r19
    2184:	91 30       	cpi	r25, 0x01	; 1
    2186:	08 f0       	brcs	.+2      	; 0x218a <__ftoa_engine+0x40>
    2188:	80 68       	ori	r24, 0x80	; 128
    218a:	91 1d       	adc	r25, r1
    218c:	df 93       	push	r29
    218e:	cf 93       	push	r28
    2190:	1f 93       	push	r17
    2192:	0f 93       	push	r16
    2194:	ff 92       	push	r15
    2196:	ef 92       	push	r14
    2198:	19 2f       	mov	r17, r25
    219a:	98 7f       	andi	r25, 0xF8	; 248
    219c:	96 95       	lsr	r25
    219e:	e9 2f       	mov	r30, r25
    21a0:	96 95       	lsr	r25
    21a2:	96 95       	lsr	r25
    21a4:	e9 0f       	add	r30, r25
    21a6:	ff 27       	eor	r31, r31
    21a8:	ec 5b       	subi	r30, 0xBC	; 188
    21aa:	fe 4f       	sbci	r31, 0xFE	; 254
    21ac:	99 27       	eor	r25, r25
    21ae:	33 27       	eor	r19, r19
    21b0:	ee 24       	eor	r14, r14
    21b2:	ff 24       	eor	r15, r15
    21b4:	a7 01       	movw	r20, r14
    21b6:	e7 01       	movw	r28, r14
    21b8:	05 90       	lpm	r0, Z+
    21ba:	08 94       	sec
    21bc:	07 94       	ror	r0
    21be:	28 f4       	brcc	.+10     	; 0x21ca <__ftoa_engine+0x80>
    21c0:	36 0f       	add	r19, r22
    21c2:	e7 1e       	adc	r14, r23
    21c4:	f8 1e       	adc	r15, r24
    21c6:	49 1f       	adc	r20, r25
    21c8:	51 1d       	adc	r21, r1
    21ca:	66 0f       	add	r22, r22
    21cc:	77 1f       	adc	r23, r23
    21ce:	88 1f       	adc	r24, r24
    21d0:	99 1f       	adc	r25, r25
    21d2:	06 94       	lsr	r0
    21d4:	a1 f7       	brne	.-24     	; 0x21be <__ftoa_engine+0x74>
    21d6:	05 90       	lpm	r0, Z+
    21d8:	07 94       	ror	r0
    21da:	28 f4       	brcc	.+10     	; 0x21e6 <__ftoa_engine+0x9c>
    21dc:	e7 0e       	add	r14, r23
    21de:	f8 1e       	adc	r15, r24
    21e0:	49 1f       	adc	r20, r25
    21e2:	56 1f       	adc	r21, r22
    21e4:	c1 1d       	adc	r28, r1
    21e6:	77 0f       	add	r23, r23
    21e8:	88 1f       	adc	r24, r24
    21ea:	99 1f       	adc	r25, r25
    21ec:	66 1f       	adc	r22, r22
    21ee:	06 94       	lsr	r0
    21f0:	a1 f7       	brne	.-24     	; 0x21da <__ftoa_engine+0x90>
    21f2:	05 90       	lpm	r0, Z+
    21f4:	07 94       	ror	r0
    21f6:	28 f4       	brcc	.+10     	; 0x2202 <__ftoa_engine+0xb8>
    21f8:	f8 0e       	add	r15, r24
    21fa:	49 1f       	adc	r20, r25
    21fc:	56 1f       	adc	r21, r22
    21fe:	c7 1f       	adc	r28, r23
    2200:	d1 1d       	adc	r29, r1
    2202:	88 0f       	add	r24, r24
    2204:	99 1f       	adc	r25, r25
    2206:	66 1f       	adc	r22, r22
    2208:	77 1f       	adc	r23, r23
    220a:	06 94       	lsr	r0
    220c:	a1 f7       	brne	.-24     	; 0x21f6 <__ftoa_engine+0xac>
    220e:	05 90       	lpm	r0, Z+
    2210:	07 94       	ror	r0
    2212:	20 f4       	brcc	.+8      	; 0x221c <__ftoa_engine+0xd2>
    2214:	49 0f       	add	r20, r25
    2216:	56 1f       	adc	r21, r22
    2218:	c7 1f       	adc	r28, r23
    221a:	d8 1f       	adc	r29, r24
    221c:	99 0f       	add	r25, r25
    221e:	66 1f       	adc	r22, r22
    2220:	77 1f       	adc	r23, r23
    2222:	88 1f       	adc	r24, r24
    2224:	06 94       	lsr	r0
    2226:	a9 f7       	brne	.-22     	; 0x2212 <__ftoa_engine+0xc8>
    2228:	84 91       	lpm	r24, Z+
    222a:	10 95       	com	r17
    222c:	17 70       	andi	r17, 0x07	; 7
    222e:	41 f0       	breq	.+16     	; 0x2240 <__ftoa_engine+0xf6>
    2230:	d6 95       	lsr	r29
    2232:	c7 95       	ror	r28
    2234:	57 95       	ror	r21
    2236:	47 95       	ror	r20
    2238:	f7 94       	ror	r15
    223a:	e7 94       	ror	r14
    223c:	1a 95       	dec	r17
    223e:	c1 f7       	brne	.-16     	; 0x2230 <__ftoa_engine+0xe6>
    2240:	ea ee       	ldi	r30, 0xEA	; 234
    2242:	f0 e0       	ldi	r31, 0x00	; 0
    2244:	68 94       	set
    2246:	15 90       	lpm	r1, Z+
    2248:	15 91       	lpm	r17, Z+
    224a:	35 91       	lpm	r19, Z+
    224c:	65 91       	lpm	r22, Z+
    224e:	95 91       	lpm	r25, Z+
    2250:	05 90       	lpm	r0, Z+
    2252:	7f e2       	ldi	r23, 0x2F	; 47
    2254:	73 95       	inc	r23
    2256:	e1 18       	sub	r14, r1
    2258:	f1 0a       	sbc	r15, r17
    225a:	43 0b       	sbc	r20, r19
    225c:	56 0b       	sbc	r21, r22
    225e:	c9 0b       	sbc	r28, r25
    2260:	d0 09       	sbc	r29, r0
    2262:	c0 f7       	brcc	.-16     	; 0x2254 <__ftoa_engine+0x10a>
    2264:	e1 0c       	add	r14, r1
    2266:	f1 1e       	adc	r15, r17
    2268:	43 1f       	adc	r20, r19
    226a:	56 1f       	adc	r21, r22
    226c:	c9 1f       	adc	r28, r25
    226e:	d0 1d       	adc	r29, r0
    2270:	7e f4       	brtc	.+30     	; 0x2290 <__ftoa_engine+0x146>
    2272:	70 33       	cpi	r23, 0x30	; 48
    2274:	11 f4       	brne	.+4      	; 0x227a <__ftoa_engine+0x130>
    2276:	8a 95       	dec	r24
    2278:	e6 cf       	rjmp	.-52     	; 0x2246 <__ftoa_engine+0xfc>
    227a:	e8 94       	clt
    227c:	01 50       	subi	r16, 0x01	; 1
    227e:	30 f0       	brcs	.+12     	; 0x228c <__ftoa_engine+0x142>
    2280:	08 0f       	add	r16, r24
    2282:	0a f4       	brpl	.+2      	; 0x2286 <__ftoa_engine+0x13c>
    2284:	00 27       	eor	r16, r16
    2286:	02 17       	cp	r16, r18
    2288:	08 f4       	brcc	.+2      	; 0x228c <__ftoa_engine+0x142>
    228a:	20 2f       	mov	r18, r16
    228c:	23 95       	inc	r18
    228e:	02 2f       	mov	r16, r18
    2290:	7a 33       	cpi	r23, 0x3A	; 58
    2292:	28 f0       	brcs	.+10     	; 0x229e <__ftoa_engine+0x154>
    2294:	79 e3       	ldi	r23, 0x39	; 57
    2296:	7d 93       	st	X+, r23
    2298:	2a 95       	dec	r18
    229a:	e9 f7       	brne	.-6      	; 0x2296 <__ftoa_engine+0x14c>
    229c:	10 c0       	rjmp	.+32     	; 0x22be <__ftoa_engine+0x174>
    229e:	7d 93       	st	X+, r23
    22a0:	2a 95       	dec	r18
    22a2:	89 f6       	brne	.-94     	; 0x2246 <__ftoa_engine+0xfc>
    22a4:	06 94       	lsr	r0
    22a6:	97 95       	ror	r25
    22a8:	67 95       	ror	r22
    22aa:	37 95       	ror	r19
    22ac:	17 95       	ror	r17
    22ae:	17 94       	ror	r1
    22b0:	e1 18       	sub	r14, r1
    22b2:	f1 0a       	sbc	r15, r17
    22b4:	43 0b       	sbc	r20, r19
    22b6:	56 0b       	sbc	r21, r22
    22b8:	c9 0b       	sbc	r28, r25
    22ba:	d0 09       	sbc	r29, r0
    22bc:	98 f0       	brcs	.+38     	; 0x22e4 <__ftoa_engine+0x19a>
    22be:	23 95       	inc	r18
    22c0:	7e 91       	ld	r23, -X
    22c2:	73 95       	inc	r23
    22c4:	7a 33       	cpi	r23, 0x3A	; 58
    22c6:	08 f0       	brcs	.+2      	; 0x22ca <__ftoa_engine+0x180>
    22c8:	70 e3       	ldi	r23, 0x30	; 48
    22ca:	7c 93       	st	X, r23
    22cc:	20 13       	cpse	r18, r16
    22ce:	b8 f7       	brcc	.-18     	; 0x22be <__ftoa_engine+0x174>
    22d0:	7e 91       	ld	r23, -X
    22d2:	70 61       	ori	r23, 0x10	; 16
    22d4:	7d 93       	st	X+, r23
    22d6:	30 f0       	brcs	.+12     	; 0x22e4 <__ftoa_engine+0x19a>
    22d8:	83 95       	inc	r24
    22da:	71 e3       	ldi	r23, 0x31	; 49
    22dc:	7d 93       	st	X+, r23
    22de:	70 e3       	ldi	r23, 0x30	; 48
    22e0:	2a 95       	dec	r18
    22e2:	e1 f7       	brne	.-8      	; 0x22dc <__ftoa_engine+0x192>
    22e4:	11 24       	eor	r1, r1
    22e6:	ef 90       	pop	r14
    22e8:	ff 90       	pop	r15
    22ea:	0f 91       	pop	r16
    22ec:	1f 91       	pop	r17
    22ee:	cf 91       	pop	r28
    22f0:	df 91       	pop	r29
    22f2:	99 27       	eor	r25, r25
    22f4:	87 fd       	sbrc	r24, 7
    22f6:	90 95       	com	r25
    22f8:	08 95       	ret

000022fa <isspace>:
    22fa:	91 11       	cpse	r25, r1
    22fc:	76 c1       	rjmp	.+748    	; 0x25ea <__ctype_isfalse>
    22fe:	80 32       	cpi	r24, 0x20	; 32
    2300:	19 f0       	breq	.+6      	; 0x2308 <isspace+0xe>
    2302:	89 50       	subi	r24, 0x09	; 9
    2304:	85 50       	subi	r24, 0x05	; 5
    2306:	d0 f7       	brcc	.-12     	; 0x22fc <isspace+0x2>
    2308:	08 95       	ret

0000230a <tolower>:
    230a:	91 11       	cpse	r25, r1
    230c:	08 95       	ret
    230e:	81 54       	subi	r24, 0x41	; 65
    2310:	8a 51       	subi	r24, 0x1A	; 26
    2312:	08 f4       	brcc	.+2      	; 0x2316 <tolower+0xc>
    2314:	80 5e       	subi	r24, 0xE0	; 224
    2316:	85 5a       	subi	r24, 0xA5	; 165
    2318:	08 95       	ret

0000231a <strchr_P>:
    231a:	fc 01       	movw	r30, r24
    231c:	05 90       	lpm	r0, Z+
    231e:	06 16       	cp	r0, r22
    2320:	21 f0       	breq	.+8      	; 0x232a <strchr_P+0x10>
    2322:	00 20       	and	r0, r0
    2324:	d9 f7       	brne	.-10     	; 0x231c <strchr_P+0x2>
    2326:	c0 01       	movw	r24, r0
    2328:	08 95       	ret
    232a:	31 97       	sbiw	r30, 0x01	; 1
    232c:	cf 01       	movw	r24, r30
    232e:	08 95       	ret

00002330 <strnlen_P>:
    2330:	fc 01       	movw	r30, r24
    2332:	05 90       	lpm	r0, Z+
    2334:	61 50       	subi	r22, 0x01	; 1
    2336:	70 40       	sbci	r23, 0x00	; 0
    2338:	01 10       	cpse	r0, r1
    233a:	d8 f7       	brcc	.-10     	; 0x2332 <strnlen_P+0x2>
    233c:	80 95       	com	r24
    233e:	90 95       	com	r25
    2340:	8e 0f       	add	r24, r30
    2342:	9f 1f       	adc	r25, r31
    2344:	08 95       	ret

00002346 <strnlen>:
    2346:	fc 01       	movw	r30, r24
    2348:	61 50       	subi	r22, 0x01	; 1
    234a:	70 40       	sbci	r23, 0x00	; 0
    234c:	01 90       	ld	r0, Z+
    234e:	01 10       	cpse	r0, r1
    2350:	d8 f7       	brcc	.-10     	; 0x2348 <strnlen+0x2>
    2352:	80 95       	com	r24
    2354:	90 95       	com	r25
    2356:	8e 0f       	add	r24, r30
    2358:	9f 1f       	adc	r25, r31
    235a:	08 95       	ret

0000235c <fgetc>:
    235c:	cf 93       	push	r28
    235e:	df 93       	push	r29
    2360:	ec 01       	movw	r28, r24
    2362:	4b 81       	ldd	r20, Y+3	; 0x03
    2364:	40 ff       	sbrs	r20, 0
    2366:	1a c0       	rjmp	.+52     	; 0x239c <fgetc+0x40>
    2368:	46 ff       	sbrs	r20, 6
    236a:	0a c0       	rjmp	.+20     	; 0x2380 <fgetc+0x24>
    236c:	4f 7b       	andi	r20, 0xBF	; 191
    236e:	4b 83       	std	Y+3, r20	; 0x03
    2370:	8e 81       	ldd	r24, Y+6	; 0x06
    2372:	9f 81       	ldd	r25, Y+7	; 0x07
    2374:	01 96       	adiw	r24, 0x01	; 1
    2376:	9f 83       	std	Y+7, r25	; 0x07
    2378:	8e 83       	std	Y+6, r24	; 0x06
    237a:	8a 81       	ldd	r24, Y+2	; 0x02
    237c:	28 2f       	mov	r18, r24
    237e:	2b c0       	rjmp	.+86     	; 0x23d6 <fgetc+0x7a>
    2380:	42 ff       	sbrs	r20, 2
    2382:	13 c0       	rjmp	.+38     	; 0x23aa <fgetc+0x4e>
    2384:	e8 81       	ld	r30, Y
    2386:	f9 81       	ldd	r31, Y+1	; 0x01
    2388:	80 81       	ld	r24, Z
    238a:	28 2f       	mov	r18, r24
    238c:	33 27       	eor	r19, r19
    238e:	27 fd       	sbrc	r18, 7
    2390:	30 95       	com	r19
    2392:	21 15       	cp	r18, r1
    2394:	31 05       	cpc	r19, r1
    2396:	29 f4       	brne	.+10     	; 0x23a2 <fgetc+0x46>
    2398:	40 62       	ori	r20, 0x20	; 32
    239a:	4b 83       	std	Y+3, r20	; 0x03
    239c:	2f ef       	ldi	r18, 0xFF	; 255
    239e:	3f ef       	ldi	r19, 0xFF	; 255
    23a0:	1b c0       	rjmp	.+54     	; 0x23d8 <fgetc+0x7c>
    23a2:	31 96       	adiw	r30, 0x01	; 1
    23a4:	f9 83       	std	Y+1, r31	; 0x01
    23a6:	e8 83       	st	Y, r30
    23a8:	11 c0       	rjmp	.+34     	; 0x23cc <fgetc+0x70>
    23aa:	ea 85       	ldd	r30, Y+10	; 0x0a
    23ac:	fb 85       	ldd	r31, Y+11	; 0x0b
    23ae:	ce 01       	movw	r24, r28
    23b0:	09 95       	icall
    23b2:	9c 01       	movw	r18, r24
    23b4:	97 ff       	sbrs	r25, 7
    23b6:	0a c0       	rjmp	.+20     	; 0x23cc <fgetc+0x70>
    23b8:	9b 81       	ldd	r25, Y+3	; 0x03
    23ba:	2f 5f       	subi	r18, 0xFF	; 255
    23bc:	3f 4f       	sbci	r19, 0xFF	; 255
    23be:	11 f0       	breq	.+4      	; 0x23c4 <fgetc+0x68>
    23c0:	80 e2       	ldi	r24, 0x20	; 32
    23c2:	01 c0       	rjmp	.+2      	; 0x23c6 <fgetc+0x6a>
    23c4:	80 e1       	ldi	r24, 0x10	; 16
    23c6:	89 2b       	or	r24, r25
    23c8:	8b 83       	std	Y+3, r24	; 0x03
    23ca:	e8 cf       	rjmp	.-48     	; 0x239c <fgetc+0x40>
    23cc:	8e 81       	ldd	r24, Y+6	; 0x06
    23ce:	9f 81       	ldd	r25, Y+7	; 0x07
    23d0:	01 96       	adiw	r24, 0x01	; 1
    23d2:	9f 83       	std	Y+7, r25	; 0x07
    23d4:	8e 83       	std	Y+6, r24	; 0x06
    23d6:	30 e0       	ldi	r19, 0x00	; 0
    23d8:	c9 01       	movw	r24, r18
    23da:	df 91       	pop	r29
    23dc:	cf 91       	pop	r28
    23de:	08 95       	ret

000023e0 <fputc>:
    23e0:	0f 93       	push	r16
    23e2:	1f 93       	push	r17
    23e4:	cf 93       	push	r28
    23e6:	df 93       	push	r29
    23e8:	8c 01       	movw	r16, r24
    23ea:	eb 01       	movw	r28, r22
    23ec:	8b 81       	ldd	r24, Y+3	; 0x03
    23ee:	81 ff       	sbrs	r24, 1
    23f0:	1b c0       	rjmp	.+54     	; 0x2428 <fputc+0x48>
    23f2:	82 ff       	sbrs	r24, 2
    23f4:	0d c0       	rjmp	.+26     	; 0x2410 <fputc+0x30>
    23f6:	2e 81       	ldd	r18, Y+6	; 0x06
    23f8:	3f 81       	ldd	r19, Y+7	; 0x07
    23fa:	8c 81       	ldd	r24, Y+4	; 0x04
    23fc:	9d 81       	ldd	r25, Y+5	; 0x05
    23fe:	28 17       	cp	r18, r24
    2400:	39 07       	cpc	r19, r25
    2402:	64 f4       	brge	.+24     	; 0x241c <fputc+0x3c>
    2404:	e8 81       	ld	r30, Y
    2406:	f9 81       	ldd	r31, Y+1	; 0x01
    2408:	01 93       	st	Z+, r16
    240a:	f9 83       	std	Y+1, r31	; 0x01
    240c:	e8 83       	st	Y, r30
    240e:	06 c0       	rjmp	.+12     	; 0x241c <fputc+0x3c>
    2410:	e8 85       	ldd	r30, Y+8	; 0x08
    2412:	f9 85       	ldd	r31, Y+9	; 0x09
    2414:	80 2f       	mov	r24, r16
    2416:	09 95       	icall
    2418:	89 2b       	or	r24, r25
    241a:	31 f4       	brne	.+12     	; 0x2428 <fputc+0x48>
    241c:	8e 81       	ldd	r24, Y+6	; 0x06
    241e:	9f 81       	ldd	r25, Y+7	; 0x07
    2420:	01 96       	adiw	r24, 0x01	; 1
    2422:	9f 83       	std	Y+7, r25	; 0x07
    2424:	8e 83       	std	Y+6, r24	; 0x06
    2426:	02 c0       	rjmp	.+4      	; 0x242c <fputc+0x4c>
    2428:	0f ef       	ldi	r16, 0xFF	; 255
    242a:	1f ef       	ldi	r17, 0xFF	; 255
    242c:	c8 01       	movw	r24, r16
    242e:	df 91       	pop	r29
    2430:	cf 91       	pop	r28
    2432:	1f 91       	pop	r17
    2434:	0f 91       	pop	r16
    2436:	08 95       	ret

00002438 <printf_P>:
    2438:	df 93       	push	r29
    243a:	cf 93       	push	r28
    243c:	cd b7       	in	r28, 0x3d	; 61
    243e:	de b7       	in	r29, 0x3e	; 62
    2440:	fe 01       	movw	r30, r28
    2442:	35 96       	adiw	r30, 0x05	; 5
    2444:	61 91       	ld	r22, Z+
    2446:	71 91       	ld	r23, Z+
    2448:	a0 91 c1 01 	lds	r26, 0x01C1
    244c:	b0 91 c2 01 	lds	r27, 0x01C2
    2450:	13 96       	adiw	r26, 0x03	; 3
    2452:	8c 91       	ld	r24, X
    2454:	13 97       	sbiw	r26, 0x03	; 3
    2456:	88 60       	ori	r24, 0x08	; 8
    2458:	13 96       	adiw	r26, 0x03	; 3
    245a:	8c 93       	st	X, r24
    245c:	80 91 c1 01 	lds	r24, 0x01C1
    2460:	90 91 c2 01 	lds	r25, 0x01C2
    2464:	af 01       	movw	r20, r30
    2466:	0e 94 12 01 	call	0x224	; 0x224 <vfprintf>
    246a:	e0 91 c1 01 	lds	r30, 0x01C1
    246e:	f0 91 c2 01 	lds	r31, 0x01C2
    2472:	23 81       	ldd	r18, Z+3	; 0x03
    2474:	27 7f       	andi	r18, 0xF7	; 247
    2476:	23 83       	std	Z+3, r18	; 0x03
    2478:	cf 91       	pop	r28
    247a:	df 91       	pop	r29
    247c:	08 95       	ret

0000247e <snprintf>:
    247e:	0f 93       	push	r16
    2480:	1f 93       	push	r17
    2482:	df 93       	push	r29
    2484:	cf 93       	push	r28
    2486:	cd b7       	in	r28, 0x3d	; 61
    2488:	de b7       	in	r29, 0x3e	; 62
    248a:	2e 97       	sbiw	r28, 0x0e	; 14
    248c:	0f b6       	in	r0, 0x3f	; 63
    248e:	f8 94       	cli
    2490:	de bf       	out	0x3e, r29	; 62
    2492:	0f be       	out	0x3f, r0	; 63
    2494:	cd bf       	out	0x3d, r28	; 61
    2496:	0d 89       	ldd	r16, Y+21	; 0x15
    2498:	1e 89       	ldd	r17, Y+22	; 0x16
    249a:	8f 89       	ldd	r24, Y+23	; 0x17
    249c:	98 8d       	ldd	r25, Y+24	; 0x18
    249e:	97 ff       	sbrs	r25, 7
    24a0:	02 c0       	rjmp	.+4      	; 0x24a6 <snprintf+0x28>
    24a2:	80 e0       	ldi	r24, 0x00	; 0
    24a4:	90 e8       	ldi	r25, 0x80	; 128
    24a6:	01 97       	sbiw	r24, 0x01	; 1
    24a8:	9e 83       	std	Y+6, r25	; 0x06
    24aa:	8d 83       	std	Y+5, r24	; 0x05
    24ac:	1a 83       	std	Y+2, r17	; 0x02
    24ae:	09 83       	std	Y+1, r16	; 0x01
    24b0:	86 e0       	ldi	r24, 0x06	; 6
    24b2:	8c 83       	std	Y+4, r24	; 0x04
    24b4:	9e 01       	movw	r18, r28
    24b6:	25 5e       	subi	r18, 0xE5	; 229
    24b8:	3f 4f       	sbci	r19, 0xFF	; 255
    24ba:	ce 01       	movw	r24, r28
    24bc:	01 96       	adiw	r24, 0x01	; 1
    24be:	69 8d       	ldd	r22, Y+25	; 0x19
    24c0:	7a 8d       	ldd	r23, Y+26	; 0x1a
    24c2:	a9 01       	movw	r20, r18
    24c4:	0e 94 12 01 	call	0x224	; 0x224 <vfprintf>
    24c8:	4d 81       	ldd	r20, Y+5	; 0x05
    24ca:	5e 81       	ldd	r21, Y+6	; 0x06
    24cc:	57 fd       	sbrc	r21, 7
    24ce:	0a c0       	rjmp	.+20     	; 0x24e4 <snprintf+0x66>
    24d0:	2f 81       	ldd	r18, Y+7	; 0x07
    24d2:	38 85       	ldd	r19, Y+8	; 0x08
    24d4:	42 17       	cp	r20, r18
    24d6:	53 07       	cpc	r21, r19
    24d8:	0c f4       	brge	.+2      	; 0x24dc <snprintf+0x5e>
    24da:	9a 01       	movw	r18, r20
    24dc:	02 0f       	add	r16, r18
    24de:	13 1f       	adc	r17, r19
    24e0:	f8 01       	movw	r30, r16
    24e2:	10 82       	st	Z, r1
    24e4:	2e 96       	adiw	r28, 0x0e	; 14
    24e6:	0f b6       	in	r0, 0x3f	; 63
    24e8:	f8 94       	cli
    24ea:	de bf       	out	0x3e, r29	; 62
    24ec:	0f be       	out	0x3f, r0	; 63
    24ee:	cd bf       	out	0x3d, r28	; 61
    24f0:	cf 91       	pop	r28
    24f2:	df 91       	pop	r29
    24f4:	1f 91       	pop	r17
    24f6:	0f 91       	pop	r16
    24f8:	08 95       	ret

000024fa <ungetc>:
    24fa:	9c 01       	movw	r18, r24
    24fc:	fb 01       	movw	r30, r22
    24fe:	83 81       	ldd	r24, Z+3	; 0x03
    2500:	80 ff       	sbrs	r24, 0
    2502:	11 c0       	rjmp	.+34     	; 0x2526 <ungetc+0x2c>
    2504:	86 fd       	sbrc	r24, 6
    2506:	0f c0       	rjmp	.+30     	; 0x2526 <ungetc+0x2c>
    2508:	9f ef       	ldi	r25, 0xFF	; 255
    250a:	2f 3f       	cpi	r18, 0xFF	; 255
    250c:	39 07       	cpc	r19, r25
    250e:	59 f0       	breq	.+22     	; 0x2526 <ungetc+0x2c>
    2510:	22 83       	std	Z+2, r18	; 0x02
    2512:	80 64       	ori	r24, 0x40	; 64
    2514:	8f 7d       	andi	r24, 0xDF	; 223
    2516:	83 83       	std	Z+3, r24	; 0x03
    2518:	86 81       	ldd	r24, Z+6	; 0x06
    251a:	97 81       	ldd	r25, Z+7	; 0x07
    251c:	01 97       	sbiw	r24, 0x01	; 1
    251e:	97 83       	std	Z+7, r25	; 0x07
    2520:	86 83       	std	Z+6, r24	; 0x06
    2522:	30 e0       	ldi	r19, 0x00	; 0
    2524:	02 c0       	rjmp	.+4      	; 0x252a <ungetc+0x30>
    2526:	2f ef       	ldi	r18, 0xFF	; 255
    2528:	3f ef       	ldi	r19, 0xFF	; 255
    252a:	c9 01       	movw	r24, r18
    252c:	08 95       	ret

0000252e <__ultoa_invert>:
    252e:	fa 01       	movw	r30, r20
    2530:	aa 27       	eor	r26, r26
    2532:	28 30       	cpi	r18, 0x08	; 8
    2534:	51 f1       	breq	.+84     	; 0x258a <__ultoa_invert+0x5c>
    2536:	20 31       	cpi	r18, 0x10	; 16
    2538:	81 f1       	breq	.+96     	; 0x259a <__ultoa_invert+0x6c>
    253a:	e8 94       	clt
    253c:	6f 93       	push	r22
    253e:	6e 7f       	andi	r22, 0xFE	; 254
    2540:	6e 5f       	subi	r22, 0xFE	; 254
    2542:	7f 4f       	sbci	r23, 0xFF	; 255
    2544:	8f 4f       	sbci	r24, 0xFF	; 255
    2546:	9f 4f       	sbci	r25, 0xFF	; 255
    2548:	af 4f       	sbci	r26, 0xFF	; 255
    254a:	b1 e0       	ldi	r27, 0x01	; 1
    254c:	3e d0       	rcall	.+124    	; 0x25ca <__ultoa_invert+0x9c>
    254e:	b4 e0       	ldi	r27, 0x04	; 4
    2550:	3c d0       	rcall	.+120    	; 0x25ca <__ultoa_invert+0x9c>
    2552:	67 0f       	add	r22, r23
    2554:	78 1f       	adc	r23, r24
    2556:	89 1f       	adc	r24, r25
    2558:	9a 1f       	adc	r25, r26
    255a:	a1 1d       	adc	r26, r1
    255c:	68 0f       	add	r22, r24
    255e:	79 1f       	adc	r23, r25
    2560:	8a 1f       	adc	r24, r26
    2562:	91 1d       	adc	r25, r1
    2564:	a1 1d       	adc	r26, r1
    2566:	6a 0f       	add	r22, r26
    2568:	71 1d       	adc	r23, r1
    256a:	81 1d       	adc	r24, r1
    256c:	91 1d       	adc	r25, r1
    256e:	a1 1d       	adc	r26, r1
    2570:	20 d0       	rcall	.+64     	; 0x25b2 <__ultoa_invert+0x84>
    2572:	09 f4       	brne	.+2      	; 0x2576 <__ultoa_invert+0x48>
    2574:	68 94       	set
    2576:	3f 91       	pop	r19
    2578:	2a e0       	ldi	r18, 0x0A	; 10
    257a:	26 9f       	mul	r18, r22
    257c:	11 24       	eor	r1, r1
    257e:	30 19       	sub	r19, r0
    2580:	30 5d       	subi	r19, 0xD0	; 208
    2582:	31 93       	st	Z+, r19
    2584:	de f6       	brtc	.-74     	; 0x253c <__ultoa_invert+0xe>
    2586:	cf 01       	movw	r24, r30
    2588:	08 95       	ret
    258a:	46 2f       	mov	r20, r22
    258c:	47 70       	andi	r20, 0x07	; 7
    258e:	40 5d       	subi	r20, 0xD0	; 208
    2590:	41 93       	st	Z+, r20
    2592:	b3 e0       	ldi	r27, 0x03	; 3
    2594:	0f d0       	rcall	.+30     	; 0x25b4 <__ultoa_invert+0x86>
    2596:	c9 f7       	brne	.-14     	; 0x258a <__ultoa_invert+0x5c>
    2598:	f6 cf       	rjmp	.-20     	; 0x2586 <__ultoa_invert+0x58>
    259a:	46 2f       	mov	r20, r22
    259c:	4f 70       	andi	r20, 0x0F	; 15
    259e:	40 5d       	subi	r20, 0xD0	; 208
    25a0:	4a 33       	cpi	r20, 0x3A	; 58
    25a2:	18 f0       	brcs	.+6      	; 0x25aa <__ultoa_invert+0x7c>
    25a4:	49 5d       	subi	r20, 0xD9	; 217
    25a6:	31 fd       	sbrc	r19, 1
    25a8:	40 52       	subi	r20, 0x20	; 32
    25aa:	41 93       	st	Z+, r20
    25ac:	02 d0       	rcall	.+4      	; 0x25b2 <__ultoa_invert+0x84>
    25ae:	a9 f7       	brne	.-22     	; 0x259a <__ultoa_invert+0x6c>
    25b0:	ea cf       	rjmp	.-44     	; 0x2586 <__ultoa_invert+0x58>
    25b2:	b4 e0       	ldi	r27, 0x04	; 4
    25b4:	a6 95       	lsr	r26
    25b6:	97 95       	ror	r25
    25b8:	87 95       	ror	r24
    25ba:	77 95       	ror	r23
    25bc:	67 95       	ror	r22
    25be:	ba 95       	dec	r27
    25c0:	c9 f7       	brne	.-14     	; 0x25b4 <__ultoa_invert+0x86>
    25c2:	00 97       	sbiw	r24, 0x00	; 0
    25c4:	61 05       	cpc	r22, r1
    25c6:	71 05       	cpc	r23, r1
    25c8:	08 95       	ret
    25ca:	9b 01       	movw	r18, r22
    25cc:	ac 01       	movw	r20, r24
    25ce:	0a 2e       	mov	r0, r26
    25d0:	06 94       	lsr	r0
    25d2:	57 95       	ror	r21
    25d4:	47 95       	ror	r20
    25d6:	37 95       	ror	r19
    25d8:	27 95       	ror	r18
    25da:	ba 95       	dec	r27
    25dc:	c9 f7       	brne	.-14     	; 0x25d0 <__ultoa_invert+0xa2>
    25de:	62 0f       	add	r22, r18
    25e0:	73 1f       	adc	r23, r19
    25e2:	84 1f       	adc	r24, r20
    25e4:	95 1f       	adc	r25, r21
    25e6:	a0 1d       	adc	r26, r0
    25e8:	08 95       	ret

000025ea <__ctype_isfalse>:
    25ea:	99 27       	eor	r25, r25
    25ec:	88 27       	eor	r24, r24

000025ee <__ctype_istrue>:
    25ee:	08 95       	ret

000025f0 <_exit>:
    25f0:	f8 94       	cli

000025f2 <__stop_program>:
    25f2:	ff cf       	rjmp	.-2      	; 0x25f2 <__stop_program>
